ccopy_reg
_reconstructor
p0
(cgeometry_msgs.msg._Pose
Pose
p1
c__builtin__
object
p2
Ntp3
Rp4
(lp5
g0
(cgeometry_msgs.msg._Point
Point
p6
g2
Ntp7
Rp8
(lp9
F0.5489043852258179
aF-0.5044091393028708
aF0.14095788155942496
abag0
(cgeometry_msgs.msg._Quaternion
Quaternion
p10
g2
Ntp11
Rp12
(lp13
F-0.14540038531856028
aF0.9889928747008764
aF-0.009762779517021562
aF0.02562244867714735
abab.