ccopy_reg
_reconstructor
p0
(cgeometry_msgs.msg._Pose
Pose
p1
c__builtin__
object
p2
Ntp3
Rp4
(lp5
g0
(cgeometry_msgs.msg._Point
Point
p6
g2
Ntp7
Rp8
(lp9
F0.5889390572883162
aF0.20165187671333426
aF0.10258974152594919
abag0
(cgeometry_msgs.msg._Quaternion
Quaternion
p10
g2
Ntp11
Rp12
(lp13
F0.1382704274473932
aF0.9900216101530916
aF0.009322992201578143
aF0.025526107024072618
abab.