(lp0
(ccopy_reg
_reconstructor
p1
(cmoveit_msgs.msg._RobotTrajectory
RobotTrajectory
p2
c__builtin__
object
p3
Ntp4
Rp5
(lp6
g1
(ctrajectory_msgs.msg._JointTrajectory
JointTrajectory
p7
g3
Ntp8
Rp9
(lp10
g1
(cstd_msgs.msg._Header
Header
p11
g3
Ntp12
Rp13
(lp14
I0
ag1
(cgenpy.rostime
Time
p15
g3
Ntp16
Rp17
(lp18
I0
aI0
abaS'world'
p19
aba(lp20
S'right_s0'
p21
aS'right_s1'
p22
aS'right_e0'
p23
aS'right_e1'
p24
aS'right_w0'
p25
aS'right_w1'
p26
aS'right_w2'
p27
aa(lp28
g1
(ctrajectory_msgs.msg._JointTrajectoryPoint
JointTrajectoryPoint
p29
g3
Ntp30
Rp31
(lp32
(F0.0011504855909140602
F-0.9936360553527768
F0.10354370318226543
F1.321524448763284
F-0.03489806292439316
F1.1926700625809092
F-0.9702428483375242
tp33
a(F0.0
F0.0
F0.0
F0.0
F0.0
F0.0
F0.0
tp34
a(F-0.21695938854695096
F0.0
F0.0
F0.0
F0.0
F0.0
F0.0
tp35
a(tag1
(cgenpy.rostime
Duration
p36
g3
Ntp37
Rp38
(lp39
I0
aI0
ababag1
(g29
g3
Ntp40
Rp41
(lp42
(F-0.004036596849286201
F-1.0197387933255204
F0.10466244879701293
F1.3666269541769425
F-0.03311022230202005
F1.173855528037748
F-0.9730281894225578
tp43
a(F-0.04222744225958344
F-0.20841605123372509
F0.008928317621359063
F0.35781560005255375
F0.014994254898669818
F-0.1479365701461355
F-0.023934160244264736
tp44
a(F-0.24327542994925394
F-1.1705470011754704
F0.05011294465303195
F1.9922929892146413
F0.08962960080652946
F-0.813649821104605
F-0.14718367103505783
tp45
a(tag1
(g36
g3
Ntp46
Rp47
(lp48
I0
aI218669065
ababag1
(g29
g3
Ntp49
Rp50
(lp51
(F-0.00923639480297327
F-1.0452063180468674
F0.1057532413969151
F1.410237505676393
F-0.031242716618548015
F1.155890486007515
F-0.9760359434662687
tp52
a(F-0.07105524504524019
F-0.3429304753168836
F0.014645217279653969
F0.5841844772940312
F0.0261168715365103
F-0.2388787870302997
F-0.04276758350165415
tp53
a(F-0.2756864661222366
F-1.2144809337912916
F0.05087540584519853
F1.9982326503640266
F0.1149693002738721
F-0.7758362423302643
F-0.20398243214330875
tp54
a(tag1
(g36
g3
Ntp55
Rp56
(lp57
I0
aI304285375
ababag1
(g29
g3
Ntp58
Rp59
(lp60
(F-0.014455979142770465
F-1.0701186593990806
F0.10681477176704761
F1.452506209935728
F-0.02929146848836771
F1.1387054798687266
F-0.9792689400632287
tp61
a(F-0.08860132928805156
F-0.4173149372834445
F0.01768506187355652
F0.704498474727161
F0.033835583200421016
F-0.28433756445527403
F-0.056827696998809116
tp62
a(F-0.24309096609967068
F-0.97293049185753
F0.03819376241841716
F1.5310266506293753
F0.11488503503989599
F-0.5522277093931186
F-0.2161249234246368
tp63
a(tag1
(g36
g3
Ntp64
Rp65
(lp66
I0
aI368426347
ababag1
(g29
g3
Ntp67
Rp68
(lp69
(F-0.019701248931017983
F-1.0945441754027978
F0.10784494051833529
F1.493559331860478
F-0.027252501013145077
F1.1222432020432977
F-0.9827311330355526
tp70
a(F-0.0974423324170905
F-0.4484053264081843
F0.018759852546851464
F0.75
F0.03862646022097266
F-0.2985834064772664
F-0.0663261573943386
tp71
a(F-0.05986921250829769
F-0.0805672658293477
F-0.0022338758926221743
F0.0
F0.05098401585246493
F0.0802297049776798
F-0.11390292247181347
tp72
a(tag1
(g36
g3
Ntp73
Rp74
(lp75
I0
aI423163842
ababag1
(g29
g3
Ntp76
Rp77
(lp78
(F-0.02497712886467031
F-1.1185421437866852
F0.10884087988463731
F1.5335044083229818
F-0.025121937259699027
F1.1064559889488126
F-0.986427462291285
tp79
a(F-0.10068491073497496
F-0.4528408032260417
F0.018578624301179954
F0.75
F0.041443251518258256
F-0.2941643518523779
F-0.0726180530897094
tp80
a(F-0.06185060486885479
F-0.08596727190828035
F-0.004599011529538914
F0.0
F0.054780182637557295
F0.08568930180037294
F-0.12234313323725808
tp81
a(tag1
(g36
g3
Ntp82
Rp83
(lp84
I0
aI476423944
ababag1
(g29
g3
Ntp85
Rp86
(lp87
(F-0.030287678476033832
F-1.1421645810077954
F0.10979894428998571
F1.5724338491261005
F-0.02289602943365127
F1.0913040562093357
F-0.9903637290403501
tp88
a(F-0.10394519612587619
F-0.45745346151846755
F0.01826722946470507
F0.75
F0.044387846728387664
F-0.2895635320924739
F-0.0792012789505541
tp89
a(F-0.06373128638562518
F-0.09174527956110114
F-0.007428696449696822
F0.0
F0.058669172507307916
F0.09156859911357645
F-0.13129863990842547
tp90
a(tag1
(g36
g3
Ntp91
Rp92
(lp93
I0
aI528329865
ababag1
(g29
g3
Ntp94
Rp95
(lp96
(F-0.03563616419179245
F-1.1654576366324543
F0.11071468443878246
F1.610427688066975
F-0.020571202211427393
F1.0767541578818978
F-0.9945464920266395
tp97
a(F-0.10721896484634934
F-0.4622581705858956
F0.017806590051398834
F0.75
F0.047460171300680504
F-0.28476400554556236
F-0.08609327593082355
tp98
a(F-0.06547875839711512
F-0.09793126389432297
F-0.010788849843447157
F0.0
F0.06261756696645461
F0.09790521659101191
F-0.14078549072961896
tp99
a(tag1
(g36
g3
Ntp100
Rp101
(lp102
I0
aI578988317
ababag1
(g29
g3
Ntp103
Rp104
(lp105
(F-0.04102510411115692
F-1.188462679265314
F0.11158280855595673
F1.647555716289516
F-0.018144110623457107
F1.0627785543085129
F-0.9989829761694948
tp106
a(F-0.1105004028546573
F-0.46727040068548625
F0.01717523290333601
F0.75
F0.05065831880118004
F-0.27974795319928336
F-0.0933111576850478
tp107
a(F-0.06705689350391934
F-0.10455761946977589
F-0.01475250110205148
F0.0
F0.06658129402841027
F0.10474037227287489
F-0.15081490207228662
tp108
a(tag1
(g36
g3
Ntp109
Rp110
(lp111
I0
aI628492355
ababag1
(g29
g3
Ntp112
Rp113
(lp114
(F-0.046456292329429966
F-1.2112171544088628
F0.11239713340859596
F1.6838791585604977
F-0.015611713676628433
F1.0493542087535106
F-1.0036809864150693
tp115
a(F-0.1137820766411885
F-0.4725063359042906
F0.01634910938561327
F0.75
F0.05397813442254196
F-0.2744965243158657
F-0.1008715117406988
tp116
a(F-0.06842625614320319
F-0.11165937497570272
F-0.01939985585279661
F0.0
F0.07050367886214512
F0.11211916965939217
F-0.1613919982356925
tp117
a(tag1
(g36
g3
Ntp118
Rp119
(lp120
I0
aI676923611
ababag1
(g29
g3
Ntp121
Rp122
(lp123
(F-0.051930808450445155
F-1.233755270969384
F0.11315052758719864
F1.7194520058469542
F-0.01297136483856426
F1.0364621563998335
F-1.0086488218274259
tp124
a(F-0.11705491267710158
F-0.4779829813679656
F0.015301426478157446
F0.75
F0.057412728122203514
F-0.26898968858383976
F-0.10879013370251905
tp125
a(F-0.069544443830782
F-0.11927445364846659
F-0.024818262699895975
F0.0
F0.07431304190061293
F0.12009090571476734
F-0.17251384289205662
tp126
a(tag1
(g36
g3
Ntp127
Rp128
(lp129
I0
aI724354074
ababag1
(g29
g3
Ntp130
Rp131
(lp132
(F-0.0574490164280751
F-1.2561085571488664
F0.11383484915754069
F1.7543220855994468
F-0.01022092123780117
F1.0240870051437483
F-1.0138951846616178
tp133
a(F-0.12030820021966981
F-0.4837182685985705
F0.01400250047112026
F0.75
F0.060951913923435054
F-0.2632060924893175
F-0.11708169230166093
tp134
a(F-0.0703670214584882
F-0.12744397555327955
F-0.031101756486929814
F0.0
F0.07792031256215386
F0.12870936952367487
F-0.1841677746909445
tp135
a(tag1
(g36
g3
Ntp136
Rp137
(lp138
I0
aI770847514
ababag1
(g29
g3
Ntp139
Rp140
(lp141
(F-0.06301055705277463
F-1.2783063154472563
F0.11444088025280051
F1.7885319291436401
F-0.007358872952731355
F1.012216538464119
F-1.0194290810499274
tp142
a(F-0.12352963307789891
F-0.4897311626886106
F0.012419646769056249
F0.75
F0.06458157232301942
F-0.2571229185577246
F-0.12575932018149957
tp143
a(F-0.07084859476618911
F-0.13621264181694848
F-0.03835035509168721
F0.0
F0.08121618866983746
F0.13803315729749635
F-0.1963289000512223
tp144
a(tag1
(g36
g3
Ntp145
Rp146
(lp147
I0
aI816460639
ababag1
(g29
g3
Ntp148
Rp149
(lp150
(F-0.06861433763366655
F-1.3003759988080315
F0.11495826118837285
F1.8221194801077
F-0.004384494342591807
F1.0008413982845654
F-1.025259708950606
tp151
a(F-0.1267054098251339
F-0.4960417751513414
F0.010517122731497682
F0.75
F0.0682829368789247
F-0.2507157466588874
F-0.13483413017344625
tp152
a(F-0.07094474920740758
F-0.14562920577046393
F-0.04666871515798479
F0.0
F0.08406849534266703
F0.14812598039850827
F-0.20895812723185161
tp153
a(tag1
(g36
g3
Ntp154
Rp155
(lp156
I0
aI861244040
ababag1
(g29
g3
Ntp157
Rp158
(lp159
(F-0.07425852330730515
F-1.3223435244465938
F0.11537542750312582
F1.855118676785466
F-0.0012980184901001852
F0.9899548311175118
F-1.0313963309741332
tp160
a(F-0.12982041537726313
F-0.5026714868817104
F0.008256143876226711
F0.75
F0.07203181046054243
F-0.24395841698285142
F-0.14431466010458205
tp161
a(F-0.07061437255829908
F-0.15574708784754793
F-0.05616432077866305
F0.0
F0.08631928390588334
F0.15905699363595813
F-0.2219994971275878
tp162
a(tag1
(g36
g3
Ntp163
Rp164
(lp165
I0
aI905242969
ababag1
(g29
g3
Ntp166
Rp167
(lp168
(F-0.07994053416639284
F-1.3442335379898576
F0.11567955365725584
F1.8875599333325208
F0.0018991640095179312
F0.9795524846881231
F-1.0378481288080434
tp169
a(F-0.13285850562519413
F-0.5096430867686368
F0.0055949946889378484
F0.75
F0.07579771819460909
F-0.2368228942241507
F-0.15420624379148462
tp170
a(F-0.06982290888189531
F-0.1666251652115404
F-0.06694489978499635
F0.0
F0.08778223290736663
F0.17090113907907942
F-0.23537785657671778
tp171
a(tag1
(g36
g3
Ntp172
Rp173
(lp174
I0
aI948497978
ababag1
(g29
g3
Ntp175
Rp176
(lp177
(F-0.08565705323345468
F-1.3660696377103794
F0.11585650796493925
F1.9194705388224926
F0.005204281639045955
F0.9696322450523459
F-1.0446240371980497
tp178
a(F-0.13312521049666365
F-0.5068212957988705
F0.0024732717485258576
F0.7353676291810561
F0.07795481425596915
F-0.22488159169364472
F-0.16119823430350033
tp179
a(F0.05717770600270345
F0.2970731153646853
F-0.0782957740278117
F-0.6796249438090711
F0.012731622077133327
F0.3843632667094214
F-0.09024539319680173
tp180
a(tag1
(g36
g3
Ntp181
Rp182
(lp183
I0
aI991045452
ababag1
(g29
g3
Ntp184
Rp185
(lp186
(F-0.09140405095140335
F-1.3878745665792336
F0.1158908240886118
F1.9508749888077368
F0.008612934670634087
F0.9601941063318457
F-1.051732556367479
tp187
a(F-0.12565488906854494
F-0.4756464459588104
F-0.0009004284423963823
F0.6801756025084245
F0.07537585165836559
F-0.2009146278352611
F-0.15861537998659714
tp188
a(F0.27152477511714224
F1.0783405785873927
F-0.07345882040048822
F-1.7650992854220213
F-0.1241618309958519
F0.6828762665552185
F0.1969583649694372
tp189
a(tag1
(g36
g3
Ntp190
Rp191
(lp192
I1
aI34618247
ababag1
(g29
g3
Ntp193
Rp194
(lp195
(F-0.09717683237766084
F-1.4096703783929048
F0.11576569508464621
F1.9817952607388747
F0.012118825945850611
F0.9512400667767591
F-1.059181542572866
tp196
a(F-0.1105658222274512
F-0.4168835177056589
F-0.003951535424050606
F0.5871729762454058
F0.06781805355998076
F-0.1669329594764854
F-0.14548805835399897
tp197
a(F0.33618257122916684
F1.2909755337452586
F-0.051781732436034206
F-1.99218535681693
F-0.17872137745971192
F0.6947968884801554
F0.32674995768046694
tp198
a(tag1
(g36
g3
Ntp199
Rp200
(lp201
I1
aI82960181
ababag1
(g29
g3
Ntp202
Rp203
(lp204
(F-0.10297011375591932
F-1.431478583211064
F0.11546299655565574
F2.01225104212803
F0.01571347330579587
F0.9427740460725557
F-1.0669779776396573
tp205
a(F-0.09071838680190975
F-0.3413489311959873
F-0.006086422446543022
F0.47331547002804286
F0.056760541101478185
F-0.1290347127771571
F-0.12437485774234104
tp206
a(F0.33888444020487046
F1.2803479893734693
F-0.02378142647463994
F-1.8924434131079713
F-0.19575650533390113
F0.6042113885169487
F0.38553946358771196
tp207
a(tag1
(g36
g3
Ntp208
Rp209
(lp210
I1
aI139915619
ababag1
(g29
g3
Ntp211
Rp212
(lp213
(F-0.10877813583905496
F-1.453320276593499
F0.1149633459365283
F2.0422599183942767
F0.019385909687550665
F0.934801819854321
F-1.0751277211814811
tp214
a(F-0.05630587484842081
F-0.21180568990209683
F-0.005456667034652917
F0.2895751986548316
F0.03576799057311829
F-0.07583559795977925
F-0.07998489425789528
tp215
a(F0.37508512174487635
F1.409564869172247
F0.022451133282606835
F-1.9595487602636352
F-0.2345158618461167
F0.5380967776355191
F0.5106608755623904
tp216
a(tag1
(g36
g3
Ntp217
Rp218
(lp219
I1
aI212770215
ababag1
(g29
g3
Ntp220
Rp221
(lp222
(F-0.11459482102855023
F-1.475216256695722
F0.11424620475370773
F2.071837525917306
F0.023122378993264785
F0.9273309682257631
F-1.0836352505278375
tp223
a(F0.0
F0.0
F0.0
F0.0
F0.0
F0.0
F0.0
tp224
a(F0.3719708747983017
F1.4002248029340045
F0.04586042126010312
F-1.891456763837129
F-0.23894326597105842
F0.4777530715916441
F0.5440475167972761
tp225
a(tag1
(g36
g3
Ntp226
Rp227
(lp228
I1
aI389617464
ababaabag1
(ctrajectory_msgs.msg._MultiDOFJointTrajectory
MultiDOFJointTrajectory
p229
g3
Ntp230
Rp231
(lp232
g1
(g11
g3
Ntp233
Rp234
(lp235
I0
ag1
(g15
g3
Ntp236
Rp237
(lp238
I0
aI0
abaS''
p239
aba(lp240
a(lp241
ababF1.6393990516662598
tp242
a(g1
(g2
g3
Ntp243
Rp244
(lp245
g1
(g7
g3
Ntp246
Rp247
(lp248
g1
(g11
g3
Ntp249
Rp250
(lp251
I0
ag1
(g15
g3
Ntp252
Rp253
(lp254
I0
aI0
abaS'world'
p255
aba(lp256
S'right_s0'
p257
aS'right_s1'
p258
aS'right_e0'
p259
aS'right_e1'
p260
aS'right_w0'
p261
aS'right_w1'
p262
aS'right_w2'
p263
aa(lp264
g1
(g29
g3
Ntp265
Rp266
(lp267
(F-0.11658253987929144
F-1.4837429170821665
F0.11428156869746332
F2.075859501205936
F0.01802427425765361
F0.9326603190343316
F-1.0852914074289302
tp268
a(F0.0
F0.0
F0.0
F0.0
F0.0
F0.0
F0.0
tp269
a(F1.0568328199164625
F0.0
F0.0
F0.0
F0.0
F0.0
F0.0
tp270
a(tag1
(g36
g3
Ntp271
Rp272
(lp273
I0
aI0
ababag1
(g29
g3
Ntp274
Rp275
(lp276
(F-0.10490559553728852
F-1.4674061453508858
F0.11836859055636488
F2.054369037851688
F0.01440730760814711
F0.9375411365230073
F-1.0675559629143208
tp277
a(F0.1316180537809232
F0.18621690180172307
F0.04329411473142726
F-0.2471719136012485
F-0.04161468630296673
F0.05815480545750053
F0.19701779038525596
tp278
a(F1.003351374760051
F1.4429846954783312
F0.2987464584352426
F-1.9399813184810717
F-0.3267793417092104
F0.4787591462511212
F1.4693031131295637
tp279
a(tag1
(g36
g3
Ntp280
Rp281
(lp282
I0
aI148653951
ababag1
(g29
g3
Ntp283
Rp284
(lp285
(F-0.09328808230398351
F-1.4508914608746715
F0.12208591329246693
F2.0323665033917293
F0.010702363224147297
F0.9427921649249048
F-1.0502742926625257
tp286
a(F0.21053975408061087
F0.30196216245419394
F0.06394361227455041
F-0.4051830928896761
F-0.06800914133216959
F0.0992616197707264
F0.30942070151027945
tp287
a(F0.9251265067795468
F1.4107369192599124
F0.17350170504500131
F-1.982524927809328
F-0.32601381134473184
F0.5648273762462258
F1.2413355064375065
tp288
a(tag1
(g36
g3
Ntp289
Rp290
(lp291
I0
aI211558455
ababag1
(g29
g3
Ntp292
Rp293
(lp294
(F-0.08173195794995033
F-1.4342027192781106
F0.12544882858369563
F2.0098506389444597
F0.00693234244680883
F0.9484162276554557
F-1.0334523779292721
tp295
a(F0.25428541902863405
F0.37035023645352505
F0.0702126952497831
F-0.5030337443276298
F-0.08372051860029397
F0.128571829740334
F0.3657614992594671
tp296
a(F0.7854772434931427
F1.2715322660453674
F0.06235100895142885
F-1.8634717701065577
F-0.28977255355545983
F0.593790657242138
F0.9504649958622058
tp297
a(tag1
(g36
g3
Ntp298
Rp299
(lp300
I0
aI260443349
ababag1
(g29
g3
Ntp301
Rp302
(lp303
(F-0.07023980900029415
F-1.4173424956715803
F0.1284733965197025
F1.9868188155364113
F0.0031187156605674447
F0.9544159995867609
F-1.0170946817412096
tp304
a(F0.2851749916806776
F0.42188672892405593
F0.07108574200083653
F-0.5800682158531759
F-0.09523397030072714
F0.154276952419932
F0.4010615771954872
tp305
a(F0.6455786917794021
F1.1211696518804635
F-0.027172726446814455
F-1.7179090362912366
F-0.24401742530662546
F0.6049330614559746
F0.6779886817424327
tp306
a(tag1
(g36
g3
Ntp307
Rp308
(lp309
I0
aI302666537
ababag1
(g29
g3
Ntp310
Rp311
(lp312
(F-0.058814715390592395
F-1.4003121078924183
F0.13117621783004899
F1.9632670118768387
F-0.0007186173065132736
F0.9607941273198208
F-1.0012041685445574
tp313
a(F0.30918376803817726
F0.46475295072743505
F0.0690805300322899
F-0.6468117843863546
F-0.1042559920459333
F0.1785316870082282
F0.4247998603320302
tp314
a(F0.596922868219372
F1.100126208917494
F-0.07905209943544764
F-1.7432386658895629
F-0.22275970755487462
F0.6546284227161915
F0.546877518320802
tp315
a(tag1
(g36
g3
Ntp316
Rp317
(lp318
I0
aI340983438
ababag1
(g29
g3
Ntp319
Rp320
(lp321
(F-0.047460095979150525
F-1.3831116047331473
F0.1335742251617349
F1.9391897450789843
F-0.004561415365161167
F0.9675533446610844
F-0.9857823385393006
tp322
a(F0.3286012089732412
F0.5020162343405994
F0.06533348542514833
F-0.7070936265374641
F-0.11141923444711357
F0.20200610384355572
F0.44080629308057007
tp323
a(F0.48785068639944895
F0.9848130036258523
F-0.1328196596194594
F-1.6321876687157664
F-0.17724232729233377
F0.661501186495152
F0.3434847790465339
tp324
a(tag1
(g36
g3
Ntp325
Rp326
(lp327
I0
aI376445147
ababag1
(g29
g3
Ntp328
Rp329
(lp330
(F-0.036179559327286934
F-1.365739752174196
F0.135684486123178
F1.9145799910012455
F-0.008393143372361696
F0.9746965912384803
F-0.970829289611079
tp331
a(F0.3355380300668543
F0.5211010255679629
F0.05894975011609125
F-0.7426110185275954
F-0.1139819520377313
F0.21898348612012283
F0.43934154438515227
tp332
a(F-0.08778683732680835
F0.12613314299736458
F-0.24443860289359418
F-0.44108661615017203
F0.029358055345867204
F0.3329414951416554
F-0.44080211595124885
tp333
a(tag1
(g36
g3
Ntp334
Rp335
(lp336
I0
aI409917694
ababag1
(g29
g3
Ntp337
Rp338
(lp339
(F-0.02497676372791638
F-1.348194015989533
F0.13752402192797164
F1.889429091621711
F-0.012198982585575727
F0.9822271342086778
F-0.9563438025273916
tp340
a(F0.32929660851518594
F0.5201934364118697
F0.05056179872639656
F-0.75
F-0.11170327313394504
F0.22785638081226178
F0.4205364082473435
tp341
a(F-0.28144677845463495
F-0.17819137963487117
F-0.2532678363328985
F0.0
F0.1054136873278575
F0.19441408016661588
F-0.6737563084769308
tp342
a(tag1
(g36
g3
Ntp343
Rp344
(lp345
I0
aI443452226
ababag1
(g29
g3
Ntp346
Rp347
(lp348
(F-0.013855289287095781
F-1.3304705387821507
F0.13910964437226675
F1.8637266465342834
F-0.015965809347080535
F0.9901486934529391
F-0.9423234447180214
tp349
a(F0.31983335302961
F0.514234215627884
F0.042381939101121674
F-0.75
F-0.10801587160651847
F0.23431494069817838
F0.3981343502578955
tp350
a(F-0.27087948611490614
F-0.1696412197564785
F-0.22436699238436003
F0.0
F0.10971152496110709
F0.1825920660278227
F-0.633908646387289
tp351
a(tag1
(g36
g3
Ntp352
Rp353
(lp354
I0
aI477722153
ababag1
(g29
g3
Ntp355
Rp356
(lp357
(F-0.00281852378433441
F-1.3125641091938596
F0.14045781282429692
F1.8374603852247784
F-0.01968214734902698
F0.9984655711714465
F-0.9287646881118459
tp358
a(F0.3105209897566521
F0.5084380534572424
F0.03498694725677406
F-0.75
F-0.10412915937142103
F0.2405133494910348
F0.37659894884791734
tp359
a(F-0.2609615679633895
F-0.1614074571349706
F-0.19816961573163602
F0.0
F0.11219167711408388
F0.1714563143417601
F-0.5961667518560106
tp360
a(tag1
(g36
g3
Ntp361
Rp362
(lp363
I0
aI512743835
ababag1
(g29
g3
Ntp364
Rp365
(lp366
(F0.008130436893569898
F-1.2944681207682325
F0.14158451189311655
F1.8106160163208695
F-0.023338098741955127
F1.007182787246173
F-0.9156630367035294
tp367
a(F0.30134947069987483
F0.5028033842654327
F0.02832139673012983
F-0.75
F-0.10009611366324114
F0.2464615742926191
F0.3559043505727215
tp368
a(F-0.2515454069831104
F-0.15348275229976868
F-0.17448703609044516
F0.0
F0.11312065370852564
F0.16097981715426873
F-0.5604114483572363
tp369
a(tag1
(g36
g3
Ntp370
Rp371
(lp372
I0
aI548536327
ababag1
(g29
g3
Ntp373
Rp374
(lp375
(F0.018988873814314793
F-1.276174517571972
F0.14250514962513283
F1.7831770492732997
F-0.026925259227625276
F1.0163062223794597
F-0.903013160105477
tp376
a(F0.292311996433147
F0.4973281770042398
F0.02233156230954844
F-0.75
F-0.09596385230620638
F0.25216997282875475
F0.33602448503238525
tp377
a(F-0.24251849651289056
F-0.1458615411575525
F-0.15313651786927746
F0.0
F0.11274204420721914
F0.15113457372206063
F-0.5265424224468601
tp378
a(tag1
(g36
g3
Ntp379
Rp380
(lp381
I0
aI585121616
ababag1
(g29
g3
Ntp382
Rp383
(lp384
(F0.029754516291187957
F-1.2576737232842126
F0.14323447537195466
F1.7551245830513555
F-0.030436621824292798
F1.0258427716359728
F-0.8908090299118931
tp385
a(F0.28340421313700287
F0.49200991683254464
F0.016965696211080915
F-0.75
F-0.09177384251032938
F0.2576491769396331
F0.31693283377022224
tp386
a(F-0.23379718578428743
F-0.13853922041327674
F-0.1339413858710071
F0.0
F0.11127621485048005
F0.14189177069397396
F-0.49447238361292756
tp387
a(tag1
(g36
g3
Ntp388
Rp389
(lp390
I0
aI622524904
ababag1
(g29
g3
Ntp391
Rp392
(lp393
(F0.040425600733477646
F-1.238954549938978
F0.14378651591062283
F1.7264370552564177
F-0.033866473523445774
F1.0358005117641345
F-0.8790440562123847
tp394
a(F0.2746235185150011
F0.48684560386855386
F0.012174262164371376
F-0.75
F-0.08756218447702985
F0.2629099875328911
F0.2986023151095224
tp395
a(F-0.22532117091766216
F-0.131511531908384
F-0.11673146859334041
F0.0
F0.10892050646051887
F0.13322204834573464
F-0.46412273928758785
tp396
a(tag1
(g36
g3
Ntp397
Rp398
(lp399
I0
aI660774942
ababag1
(g29
g3
Ntp400
Rp401
(lp402
(F0.05100091884406744
F-1.2200040817915103
F0.1441745280028067
F1.6970899434736155
F-0.03721028854110663
F1.0461888866017206
F-0.8677112222765786
tp403
a(F0.2659684689323679
F0.4818317649265087
F0.007910122183239823
F-0.75
F-0.08335994906328505
F0.26796328368591027
F0.2810052494989363
tp404
a(F-0.2170488110373109
F-0.12477411605382002
F-0.10134362340783559
F0.0
F0.10584994286907565
F0.12509580514571927
F-0.43542074685937615
tp405
a(tag1
(g36
g3
Ntp406
Rp407
(lp408
I0
aI699904424
ababag1
(g29
g3
Ntp409
Rp410
(lp411
(F0.06147985714756854
F-1.2008075288185298
F0.14441096540522888
F1.667055408598868
F-0.04046462120965708
F1.0570189160029302
F-0.8568032165271058
tp412
a(F0.2574382803841432
F0.47696447417141596
F0.00412867313614628
F-0.75
F-0.07919355125499082
F0.2728199469321114
F0.2641133841847576
tp413
a(F-0.20895298256667294
F-0.11832221441455035
F-0.08762237978705903
F0.0
F0.10221822930448832
F0.11748348159397856
F-0.4082970959085518
tp414
a(tag1
(g36
g3
Ntp415
Rp416
(lp417
I0
aI739950470
ababag1
(g29
g3
Ntp418
Rp419
(lp420
(F0.0718624302895465
F-1.1813480431318697
F0.1445074580379468
F1.6363018672078826
F-0.04362700109481075
F1.0683034350799396
F-0.8463125608670975
tp421
a(F0.24903241359300965
F0.47223937889567813
F0.000787933974569753
F-0.75
F-0.07508514366195482
F0.27749080144722055
F0.24789795701745101
tp422
a(F-0.201017701800021
F-0.11215048713761158
F-0.07542042800398559
F0.0
F0.0981590682820294
F0.11035585399403518
F-0.38268466188962674
tp423
a(tag1
(g36
g3
Ntp424
Rp425
(lp426
I0
aI780955192
ababag1
(g29
g3
Ntp427
Rp428
(lp429
(F0.08214931061051998
F-1.1616064898094247
F0.1444748010660174
F1.6047934763356266
F-0.04669583235101876
F1.0800573724461755
F-0.8362317356995027
tp430
a(F0.24075023065987172
F0.46765172699783275
F-0.002151412120140532
F-0.75
F-0.07105301585931514
F0.2819865706022239
F0.23232977716810946
tp431
a(F-0.19323527048904537
F-0.10625292448730034
F-0.06459903428042131
F0.0
F0.0937876350510945
F0.10368428564773549
F-0.3585175936807564
tp432
a(tag1
(g36
g3
Ntp433
Rp434
(lp435
I0
aI822966380
ababag1
(g29
g3
Ntp436
Rp437
(lp438
(F0.09234185680501032
F-1.141561161302332
F0.14432295155821728
F1.5724895091687874
F-0.049670298912693166
F1.092298078554931
F-0.8265533023365085
tp439
a(F0.23259071224385514
F0.4631963930076376
F-0.004726016486185759
F-0.75
F-0.06711198882718673
F0.2863178496652339
F0.21737931131180652
tp440
a(F-0.1856039530470459
F-0.10062282810290392
F-0.055028309254328826
F0.0
F0.08920216042275106
F0.09744094493961963
F-0.3357308457052505
tp441
a(tag1
(g36
g3
Ntp442
Rp443
(lp444
I0
aI866038336
ababag1
(g29
g3
Ntp445
Rp446
(lp447
(F0.10244214474971115
F-1.1211874213203874
F0.14406103038393278
F1.539343593494272
F-0.05255027674855485
F1.1050457185231624
F-0.8172700242419644
tp448
a(F0.22455222229788074
F0.45886789980826015
F-0.006969898573160516
F-0.75
F-0.06327379539325366
F0.2904950945960716
F0.20301676127927026
tp449
a(F-0.1781261302735661
F-0.09525284156285203
F-0.046587320160839496
F0.0
F0.08448556808065089
F0.09159898145785267
F-0.31426004002345875
tp450
a(tag1
(g36
g3
Ntp451
Rp452
(lp453
I0
aI910232891
ababag1
(g29
g3
Ntp454
Rp455
(lp456
(F0.11245300394357703
F-1.1004572595907078
F0.14369732700539387
F1.5053027756012771
F-0.05533625409351199
F1.1183237483370014
F-0.8083749894078406
tp457
a(F0.21663230801672273
F0.4546604333175609
F-0.008914508632897427
F-0.75
F-0.059547440207263685
F0.29452862698858595
F0.18921212366528206
tp458
a(F-0.1708068142223207
F-0.09013501601646953
F-0.039164088111552676
F0.0
F0.07970707824104341
F0.08613266317690262
F-0.2940414340415736
tp459
a(tag1
(g36
g3
Ntp460
Rp461
(lp462
I0
aI955620648
ababag1
(g29
g3
Ntp463
Rp464
(lp465
(F0.1223780636488735
F-1.0793387325720845
F0.14323930470370014
F1.4703063595814378
F-0.058029260416099786
F1.1321594996243034
F-0.7998617369245965
tp466
a(F0.2088275224337287
F0.45056784735100336
F-0.010588813961913543
F-0.75
F-0.05593953469854725
F0.2984286556564819
F0.17593522318763738
tp467
a(F-0.16365251227035976
F-0.0852608956563786
F-0.03265545594372163
F0.0
F0.07492376888916355
F0.08101747621712238
F-0.275012049094919
tp468
a(tag1
(g36
g3
Ntp469
Rp470
(lp471
I1
aI2282536
ababag1
(g29
g3
Ntp472
Rp473
(lp474
(F0.13222181368636668
F-1.0577952562352448
F0.1426936036105572
F1.4342844539123982
F-0.060630804769649674
F1.1465849070887348
F-0.7917243920298757
tp475
a(F0.2011332551887268
F0.44658365566942093
F-0.012019402739471767
F-0.75
F-0.052454603042411695
F0.30220531591046274
F0.16315570887854688
tp476
a(F-0.15667039228655347
F-0.08062161201082449
F-0.026966842096408532
F0.0
F0.07018207273195719
F0.07623018681369073
F-0.2571099117167628
tp477
a(tag1
(g36
g3
Ntp478
Rp479
(lp480
I1
aI50311743
ababag1
(g29
g3
Ntp481
Rp482
(lp483
(F0.1419896861290502
F-1.0357847040819184
F0.14206603860696226
F1.3971561312189869
F-0.06314282415458349
F1.1616374255254989
F-0.7839578155972465
tp484
a(F0.1935435573306576
F0.4427010075258948
F-0.013230601169748382
F-0.75
F-0.04909535736467842
F0.30586872872792314
F0.1508430054517461
tp485
a(F-0.14986761872421536
F-0.07620798286637645
F-0.022011955939027165
F0.0
F0.06551913225968063
F0.07174888025742628
F-0.24027418298364359
tp486
a(tag1
(g36
g3
Ntp487
Rp488
(lp489
I1
aI99816174
ababag1
(g29
g3
Ntp490
Rp491
(lp492
(F0.1516881663248855
F-1.0132582445653875
F0.14136158846229602
F1.3588270689410558
F-0.06556764277125846
F1.1773612022116267
F-0.776557775925439
tp493
a(F0.186050942762421
F0.438912641957598
F-0.01424459980717217
F-0.75
F-0.04586294044226949
F0.30942908345677844
F0.13896620795903897
tp494
a(F-0.14325093342198064
F-0.07201060441525885
F-0.017712421225515113
F0.0
F0.06096408534789633
F0.06755296869044325
F-0.22444542219074082
tp495
a(tag1
(g36
g3
Ntp496
Rp497
(lp498
I1
aI150921590
ababag1
(g29
g3
Ntp499
Rp500
(lp501
(F0.16132494470823228
F-0.9901588235768758
F0.14058437166017315
F1.31918648147858
F-0.06790794329722066
F1.193808598716452
F-0.7695211542280099
tp502
a(F0.17864614392225836
F0.43521081426846386
F-0.015081585209488987
F-0.75
F-0.042757133645995905
F0.3128967498113614
F0.12749390186240753
tp503
a(F-0.13682636027982178
F-0.06801993595161356
F-0.013997384870604875
F0.0
F0.056539218567799705
F0.0636231803698986
F-0.20956576559661147
tp504
a(tag1
(g36
g3
Ntp505
Rp506
(lp507
I1
aI203775707
ababag1
(g29
g3
Ntp508
Rp509
(lp510
(F0.17090912583707904
F-0.9664191539303351
F0.13973760266575225
F1.2781030666800772
F-0.07016675196747223
F1.2110421995717198
F-0.7628462000255125
tp511
a(F0.17131779451277607
F0.4315871850396791
F-0.015759875510196367
F-0.75
F-0.039776528958078414
F0.31628242865678785
F0.11639388874448833
tp512
a(F-0.13059899409431092
F-0.06422637447961575
F-0.01080314120260148
F0.0
F0.052260982347729454
F0.05994153985516926
F-0.19557899513230387
tp513
a(tag1
(g36
g3
Ntp514
Rp515
(lp516
I1
aI258553593
ababag1
(g29
g3
Ntp517
Rp518
(lp519
(F0.18045151904622272
F-0.9419590048688161
F0.13882351958188582
F1.2354195513599837
F-0.0723474403360773
F1.2291375136461757
F-0.7565328601373457
tp520
a(F0.16405199757618028
F0.42803265724973866
F-0.01629605781937577
F-0.75
F-0.03691866048185388
F0.31959735604006945
F0.1056327800802484
tp521
a(F-0.12457296116713598
F-0.06062031031835291
F-0.008072718511493925
F0.0
F0.04814095796284382
F0.05649132258614756
F-0.18243073071681126
tp522
a(tag1
(g36
g3
Ntp523
Rp524
(lp525
I1
aI315464947
ababag1
(g29
g3
Ntp526
Rp527
(lp528
(F0.18996504767561717
F-0.9166814727906805
F0.13784326972343944
F1.1909451963348177
F-0.07445374812394771
F1.2481866850175602
F-0.7505832179769013
tp529
a(F0.1567635773364851
F0.42454404819921543
F-0.01658457557986048
F-0.75
F-0.03426116173189364
F0.32285595304525183
F0.09522100050097272
tp530
a(F-0.12099914045889386
F-0.05696466788744047
F-0.0017802092463863734
F0.0
F0.04151343082077529
F0.05333546359934547
F-0.16856580208562463
tp531
a(tag1
(g36
g3
Ntp532
Rp533
(lp534
I1
aI374764087
ababag1
(g29
g3
Ntp535
Rp536
(lp537
(F0.19945677450546254
F-0.8904671781122109
F0.13681169223110273
F1.1444457917166686
F-0.07649986353990965
F1.2683037738303407
F-0.7449965121502089
tp538
a(F0.14956984602765175
F0.4210956812817108
F-0.016881503380652814
F-0.75
F-0.0316384395621159
F0.3260670124835362
F0.08502715385988771
tp539
a(F-0.1109260216608951
F-0.05416304122366677
F-0.007646165906234199
F0.0
F0.04292427431293893
F0.05015799670256151
F-0.1599507522032711
tp540
a(tag1
(g36
g3
Ntp541
Rp542
(lp543
I1
aI436763293
ababag1
(g29
g3
Ntp544
Rp545
(lp546
(F0.20896343279903867
F-0.8631684519311179
F0.13569699565505985
F1.0956253872672177
F-0.07847055417101603
F1.2896324774341452
F-0.7397925827999311
tp547
a(F0.14244303950255233
F0.4176749500433131
F-0.017197593296760773
F-0.75
F-0.029044191900131813
F0.32924503289635587
F0.07501254337301941
tp548
a(F-0.10770792400135185
F-0.050823110699861576
F-0.0021870402937675657
F0.0
F0.03678851790973831
F0.04737098270250594
F-0.14747817180068132
tp549
a(tag1
(g36
g3
Ntp550
Rp551
(lp552
I1
aI501857166
ababag1
(g29
g3
Ntp553
Rp554
(lp555
(F0.2185000319821409
F-0.8345962256976013
F0.13451071452735266
F1.0441098835636375
F-0.08038100928970293
F1.3123562662644883
F-0.7349789678645763
tp556
a(F0.13525142959395775
F0.4142871659992375
F-0.017357821947997752
F-0.75
F-0.026599645193499707
F0.3324015528399594
F0.06521940415868023
tp557
a(F-0.1013845229392216
F-0.047679689747550866
F-0.002459767987548559
F0.0
F0.034295226369404984
F0.04440856532266178
F-0.13729707627434995
tp558
a(tag1
(g36
g3
Ntp559
Rp560
(lp561
I1
aI570544504
ababag1
(g29
g3
Ntp562
Rp563
(lp564
(F0.22810129094971204
F-0.8045080665149288
F0.13323857175556253
F0.9894172891901015
F-0.08223220787936318
F1.3367107863584513
F-0.7305774014269497
tp565
a(F0.1279251452886331
F0.41088117105231187
F-0.017378817712981727
F-0.75
F-0.024277691973843562
F0.33558702895599435
F0.05553629509888315
tp566
a(F-0.09897427278311549
F-0.04550130723776917
F0.0017503028793515102
F0.0
F0.02934029864531376
F0.04272800844577272
F-0.12772167357217398
tp567
a(tag1
(g36
g3
Ntp568
Rp569
(lp570
I1
aI643467963
ababag1
(g29
g3
Ntp571
Rp572
(lp573
(F0.2378010841544784
F-0.772550120456474
F0.13188635002282878
F0.9308380681221613
F-0.08404190609253208
F1.3630480292994336
F-0.7266163625114047
tp574
a(F0.12042961735729618
F0.4074493410286132
F-0.01727591851325757
F-0.75
F-0.022078417365259794
F0.3388118021133588
F0.04591805145985388
tp575
a(F-0.09245625286742692
F-0.04215846188642385
F0.0009055534661632381
F0.0
F0.026849001541854937
F0.03964088023256365
F-0.11797265756780066
tp576
a(tag1
(g36
g3
Ntp577
Rp578
(lp579
I1
aI721573591
ababag1
(g29
g3
Ntp580
Rp581
(lp582
(F0.24766005681394787
F-0.7382645452388998
F0.13042960630444572
F0.8674613599352624
F-0.08581535136881108
F1.3918145719909845
F-0.7231414404368712
tp583
a(F0.10615844367533162
F0.37956896649582994
F-0.01613461020720623
F-0.704498474727161
F-0.018777288650315895
F0.3212369299761587
F0.034357735676068674
tp584
a(F-0.22116491272464667
F-0.5504916307731036
F0.023236371727483038
F0.9572606669358185
F0.046486885226233794
F-0.40364230112546773
F-0.14231136397233882
tp585
a(tag1
(g36
g3
Ntp586
Rp587
(lp588
I1
aI806075869
ababag1
(g29
g3
Ntp589
Rp590
(lp591
(F0.25776311763390114
F-0.7009346663243645
F0.12884197609740725
F0.7978515464155631
F-0.08756538872726419
F1.4237201588155648
F-0.7202267677623205
tp592
a(F0.06626523327256587
F0.2497602820160623
F-0.010618787282583472
F-0.4669914435081408
F-0.011356106397814788
F0.21468769967327478
F0.01772332443758381
tp593
a(F-0.3014689566006294
F-1.063454192172208
F0.04526387235639015
F1.9701356086514894
F0.0534744988229939
F-0.8964155274992289
F-0.10127352927814551
tp594
a(tag1
(g36
g3
Ntp595
Rp596
(lp597
I1
aI911705817
ababag1
(g29
g3
Ntp598
Rp599
(lp600
(F0.2682458179531442
F-0.6594075801991839
F0.12707780281653638
F0.7196999620596645
F-0.08931169358381968
F1.4599061420949604
F-0.7179948128205399
tp601
a(F0.0
F0.0
F0.0
F0.0
F0.0
F0.0
F0.0
tp602
a(F-0.2595664530381061
F-1.028269255273282
F0.043683420026769657
F1.9351435157724401
F0.04324097262489124
F-0.896016011474335
F-0.05526635408200847
tp603
a(tag1
(g36
g3
Ntp604
Rp605
(lp606
I2
aI195907929
ababaabag1
(g229
g3
Ntp607
Rp608
(lp609
g1
(g11
g3
Ntp610
Rp611
(lp612
I0
ag1
(g15
g3
Ntp613
Rp614
(lp615
I0
aI0
abag239
aba(lp616
a(lp617
ababF2.4617068767547607
tp618
a(g1
(g2
g3
Ntp619
Rp620
(lp621
g1
(g7
g3
Ntp622
Rp623
(lp624
g1
(g11
g3
Ntp625
Rp626
(lp627
I0
ag1
(g15
g3
Ntp628
Rp629
(lp630
I0
aI0
abaS'world'
p631
aba(lp632
S'right_s0'
p633
aS'right_s1'
p634
aS'right_e0'
p635
aS'right_e1'
p636
aS'right_w0'
p637
aS'right_w1'
p638
aS'right_w2'
p639
aa(lp640
g1
(g29
g3
Ntp641
Rp642
(lp643
(F0.2703641138648042
F-0.655393291624043
F0.13192234775814557
F0.7209709703061444
F-0.08820389530341129
F1.458432234082057
F-0.7209709703061444
tp644
a(F0.0
F0.0
F0.0
F0.0
F0.0
F0.0
F0.0
tp645
a(F-0.5295601363552565
F0.0
F0.0
F0.0
F0.0
F0.0
F0.0
tp646
a(tag1
(g36
g3
Ntp647
Rp648
(lp649
I0
aI0
ababag1
(g29
g3
Ntp650
Rp651
(lp652
(F0.2566368979818887
F-0.6824674198218827
F0.13259763063439725
F0.7717402908387198
F-0.08647335567519912
F1.4349173722734827
F-0.7291682458865486
tp653
a(F-0.10812672780398133
F-0.20207637806360246
F0.004656346082974332
F0.37714672247427455
F0.013748158888648521
F-0.1738367272839484
F-0.06776323846574947
tp654
a(F-0.6080276732079953
F-1.0570928693268973
F0.021487346277679904
F1.9595536521814876
F0.07813914279599354
F-0.896847699179837
F-0.40369314076616586
tp655
a(tag1
(g36
g3
Ntp656
Rp657
(lp658
I0
aI227692427
ababag1
(g29
g3
Ntp659
Rp660
(lp661
(F0.24306497918398562
F-0.7072892512959205
F0.13314993352333754
F0.8179752328500753
F-0.08474202787077319
F1.4136500396311205
F-0.7378288054309772
tp662
a(F-0.1853679976825361
F-0.3260458538093834
F0.006739254698918376
F0.6051427054841683
F0.023806585259009215
F-0.27731918806487293
F-0.12208205604305448
tp663
a(F-0.785422280612491
F-1.0898555374026728
F0.010480068128158385
F1.9719731450857116
F0.10446150965747782
F-0.879381698425565
F-0.6025534970853947
tp664
a(tag1
(g36
g3
Ntp665
Rp666
(lp667
I0
aI314711408
ababag1
(g29
g3
Ntp668
Rp669
(lp670
(F0.22959358719322703
F-0.7302994388178936
F0.13359725833663397
F0.8605629585596553
F-0.08300348202184885
F1.3941904287404108
F-0.746901218736515
tp671
a(F-0.23451406612751916
F-0.38728527711306326
F0.006921595717911226
F0.7144826080098687
F0.03045236464957957
F-0.3253571968093133
F-0.16190310062967028
tp672
a(F-0.6839791550014855
F-0.7081133058487824
F-0.007274858651939429
F1.2304624677797709
F0.09475717274394141
F-0.5237332095263876
F-0.5980908056970986
tp673
a(tag1
(g36
g3
Ntp674
Rp675
(lp676
I0
aI377435867
ababag1
(g29
g3
Ntp677
Rp678
(lp679
(F0.21618512065583417
F-0.7518011615502163
F0.13395120055715917
F0.9001148408669043
F-0.08125330924732063
F1.3762352033573702
F-0.7563497434774186
tp680
a(F-0.2628027581860914
F-0.40894430980813784
F0.006078806209938337
F0.75
F0.03449967304454245
F-0.33938773960757096
F-0.18899240789843152
tp681
a(F-0.33505959646015204
F-0.047806500239501164
F-0.024811155553377155
F0.0
F0.051446884307881025
F0.04262184579828765
F-0.38523822020864096
tp682
a(tag1
(g36
g3
Ntp683
Rp684
(lp685
I0
aI430171710
ababag1
(g29
g3
Ntp686
Rp687
(lp688
(F0.20281231211896897
F-0.7720151759974031
F0.134219595035112
F0.9370769479167305
F-0.0794884027148853
F1.3595627952383869
F-0.7661480421814856
tp689
a(F-0.2799897180691494
F-0.41135920330070275
F0.004756841353006553
F0.75
F0.03715685212953848
F-0.337230754204502
F-0.2088312435411484
tp690
a(F-0.3617088454942665
F-0.05004535707561789
F-0.02884690064918451
F0.0
F0.056300533709662065
F0.04478487180303317
F-0.41914134876492004
tp691
a(tag1
(g36
g3
Ntp692
Rp693
(lp694
I0
aI479454520
ababag1
(g29
g3
Ntp695
Rp696
(lp697
(F0.18945478615193723
F-0.7911077534845925
F0.1344078425850092
F0.9717861134237348
F-0.07770657781844849
F1.3440056463067767
F-0.7762759317758174
tp698
a(F-0.29741901860815806
F-0.4137317621184312
F0.0033158608276576762
F0.75
F0.03988487465584742
F-0.3351024119614251
F-0.22909979755359144
tp699
a(F-0.39099868692449974
F-0.05236589840835449
F-0.03345033978487401
F0.0
F0.061532508268136575
F0.047091669977097135
F-0.4562769365332768
tp700
a(tag1
(g36
g3
Ntp701
Rp702
(lp703
I0
aI525733407
ababag1
(g29
g3
Ntp704
Rp705
(lp706
(F0.17609698663391368
F-0.8092074981312288
F0.13451969504284583
F1.0045036919110923
F-0.07590633216841453
F1.3294334986195488
F-0.7867174148426567
tp707
a(F-0.3151877058141999
F-0.4160709003752212
F0.001743330564174895
F0.75
F0.04269323090409921
F-0.33299256792515586
F-0.24990135626964416
tp708
a(F-0.4232824812154711
F-0.05477620938482494
F-0.03868201242181723
F0.0
F0.06718105888058008
F0.0495561916193602
F-0.49707747514364725
tp709
a(tag1
(g36
g3
Ntp710
Rp711
(lp712
I0
aI569356845
ababag1
(g29
g3
Ntp713
Rp714
(lp715
(F0.16272686128531902
F-0.8264160151625314
F0.13455774776691012
F1.0354369717710254
F-0.07408668782670391
F1.3157427945210851
F-0.7974594221464631
tp716
a(F-0.3333861448096015
F-0.41838355781473113
F2.6604071089064978e-05
F0.75
F0.04559056855567663
F-0.330892897038227
F-0.2713338300963768
tp717
a(F-0.45897395289406645
F-0.05728529727248792
F-0.044614961665884
F0.0
F0.07329304484691285
F0.052194794585616495
F-0.5420447942483267
tp718
a(tag1
(g36
g3
Ntp719
Rp720
(lp721
I0
aI610601218
ababag1
(g29
g3
Ntp722
Rp723
(lp724
(F0.14933499041629397
F-0.8428149729395963
F0.13452376390891452
F1.0647533499997541
F-0.07224708396502623
F1.3028496602052924
F-0.8084909733663213
tp725
a(F-0.35210189983338513
F-0.420675253867416
F-0.0018474101985218444
F0.75
F0.04858518139802678
F-0.32879634149506265
F-0.29349357431481926
tp726
a(F-0.4985600252849917
F-0.05990348279522021
F-0.05133593131033819
F0.0
F0.07992495911279227
F0.05502674686130224
F-0.5917654611763185
tp727
a(tag1
(g36
g3
Ntp728
Rp729
(lp730
I0
aI649689723
ababag1
(g29
g3
Ntp731
Rp732
(lp733
(F0.13591398901708832
F-0.8584709459294471
F0.13441889702306262
F1.0925900524288532
F-0.07038730148124436
F1.2906850945299762
F-0.8198025960738595
tp734
a(F-0.37142272422761224
F-0.4229504713360309
F-0.0038925087558552432
F0.75
F0.05168537363131852
F-0.3266967231222501
F-0.3164783909827589
tp735
a(F-0.5426165858465061
F-0.06264280993517694
F-0.05894729426998487
F0.0
F0.08714461094092187
F0.058074819911546005
F-0.6469296795686867
tp736
a(tag1
(g36
g3
Ntp737
Rp738
(lp739
I0
aI686805326
ababag1
(g29
g3
Ntp740
Rp741
(lp742
(F0.12245808374801086
F-0.8734388363731664
F0.13424384975812848
F1.1190610003986594
F-0.06850740840496979
F1.2791915705430943
F-0.8313859111806182
tp743
a(F-0.39143905863835704
F-0.4252129342586799
F-0.006123424945586153
F0.75
F0.05489975904911033
F-0.3245884567338347
F-0.34039009104759943
tp744
a(F-0.5918278554744991
F-0.06551754119311358
F-0.06757000907624958
F0.0
F0.09503333504995404
F0.06136608774247859
F-0.7083538068362923
tp745
a(tag1
(g36
g3
Ntp746
Rp747
(lp748
I0
aI722099923
ababag1
(g29
g3
Ntp749
Rp750
(lp751
(F0.10896280593267879
F-0.887764354193482
F0.13399899069821375
F1.1442617862017028
F-0.06660771924889651
F1.2683205734128586
F-0.8432333285987195
tp752
a(F-0.41224629513964073
F-0.42746581857250876
F-0.0085560572315092
F0.75
F0.05823753226270878
F-0.32246632640342815
F-0.3653368730070411
tp753
a(F-0.6470110255847775
F-0.06854473436502806
F-0.07734718483226653
F0.0
F0.10368904634304675
F0.06493285392273421
F-0.7770096421740869
tp754
a(tag1
(g36
g3
Ntp755
Rp756
(lp757
I0
aI755700971
ababag1
(g29
g3
Ntp758
Rp759
(lp760
(F0.09542476334809366
F-0.9014858545815055
F0.13368444327688478
F1.1682733582369789
F-0.06468876372370187
F1.2580307772681876
F-0.855337819205102
tp761
a(F-0.42314727881739433
F-0.4192568135064637
F-0.010902173578683068
F0.7317996328525308
F0.06016828195319948
F-0.3125780243113917
F-0.38161264272890666
tp762
a(F-0.017932185764582637
F0.5824807392485666
F-0.06723245083015368
F-1.1358496779838867
F0.014342758962682922
F0.5506348244891095
F-0.22027618113584121
tp763
a(tag1
(g36
g3
Ntp764
Rp765
(lp766
I0
aI787716400
ababag1
(g29
g3
Ntp767
Rp768
(lp769
(F0.08184146705823642
F-0.9146357263191557
F0.13330015539468593
F1.1911648032950515
F-0.0627512618939977
F1.2482866692296872
F-0.8676927404634627
tp770
a(F-0.4174439766891859
F-0.39522465283288355
F-0.012845147436679133
F0.6862981075796917
F0.05970897222245977
F-0.2911767874946894
F-0.38273186213766386
tp771
a(F0.3674901789049025
F0.9016803978457373
F-0.053103711730244266
F-1.6747639440461761
F-0.04227415245750007
F0.7715918113057059
F0.147863203912565
tp772
a(tag1
(g36
g3
Ntp773
Rp774
(lp775
I0
aI819795252
ababag1
(g29
g3
Ntp776
Rp777
(lp778
(F0.06821119757016965
F-0.9272414589235717
F0.13284595532093763
F1.2129954830024285
F-0.06079610378481636
F1.239057493439608
F-0.8802917004723709
tp779
a(F-0.4036454556685144
F-0.3651276811186974
F-0.014442622851138199
F0.6307720521965128
F0.05804056620282325
F-0.2657785966529843
F-0.37590271178762535
tp780
a(F0.46144190384541933
F0.9100278689889938
F-0.0432493390575751
F-1.6680774084034302
F-0.05787461186769889
F0.7576609414740949
F0.2611464554731216
tp781
a(tag1
(g36
g3
Ntp782
Rp783
(lp784
I0
aI852922385
ababag1
(g29
g3
Ntp785
Rp786
(lp787
(F0.05453289926046057
F-0.9393264757094774
F0.13232159793168624
F1.2338166992376445
F-0.05882433196221588
F1.2303164285689145
F-0.893128451335486
tp788
a(F-0.3845983541810649
F-0.33240725905654733
F-0.01567620267668281
F0.5713122304165696
F0.05555592666839407
F-0.23903652523195001
F-0.36346684864498363
tp789
a(F0.6303455169904466
F0.9715055454543597
F-0.028141740860660725
F-1.7517936508278056
F-0.08442759766686171
F0.7808067194170378
F0.4496349053317776
tp790
a(tag1
(g36
g3
Ntp791
Rp792
(lp793
I0
aI887477716
ababag1
(g29
g3
Ntp794
Rp795
(lp796
(F0.0408060959055739
F-0.9509107933016723
F0.13172680356514135
F1.2536730099593736
F-0.05683712619280792
F1.2220399387444933
F-0.9061968037612439
tp797
a(F-0.35762996090459775
F-0.2953023201502544
F-0.016347956441869146
F0.5049622813656613
F0.05186175982140091
F-0.20976044235508925
F-0.3426996416320532
tp798
a(F0.8165066075326657
F1.026929081941034
F-0.008823687088606334
F-1.82283261007342
F-0.11362140888693548
F0.7970365081313148
F0.6618620776224292
tp799
a(tag1
(g36
g3
Ntp800
Rp801
(lp802
I0
aI924243398
ababag1
(g29
g3
Ntp803
Rp804
(lp805
(F0.02703082174846684
F-0.9620115504911321
F0.13106129151377194
F1.2726032815605726
F-0.05483578941673648
F1.2142072552845622
F-0.919490558901185
tp806
a(F-0.32075630574694314
F-0.2529800607692694
F-0.016240400864055697
F0.43040850371293926
F0.04666326834581341
F-0.17747779893972565
F-0.3114172048352822
tp807
a(F0.9785998508893148
F1.0431639530104584
F0.012844754666667948
F-1.8252874540139898
F-0.13929318523389528
F0.7834795247071036
F0.857705534121353
tp808
a(tag1
(g36
g3
Ntp809
Rp810
(lp811
I0
aI964533666
ababag1
(g29
g3
Ntp812
Rp813
(lp814
(F0.013207564451232154
F-0.9726434373787042
F0.13032480922242415
F1.290641539838619
F-0.052821734574065006
F1.2067999585398947
F-0.9330034532803888
tp815
a(F-0.2674852902742212
F-0.20155260977301404
F-0.014833740146824098
F0.34121127195622825
F0.039009606904004804
F-0.13965007645752672
F-0.26289426135865046
tp816
a(F1.2230524670147502
F1.0997597089357107
F0.04298565329227822
F-1.8942980672486924
F-0.1767953164150071
F0.7956287661633841
F1.1417381530974227
tp817
a(tag1
(g36
g3
Ntp818
Rp819
(lp820
I1
aI10670888
ababag1
(g29
g3
Ntp821
Rp822
(lp823
(F-0.0006627829235222705
F-0.9828190474670795
F0.12951715810749867
F1.3078176650854527
F-0.05079647191133195
F1.1998016373321725
F-0.9467291144765206
tp824
a(F-0.1704827410973337
F-0.12325348295344321
F-0.010187148787098444
F0.20773027103513703
F0.024904115798623193
F-0.08443474763800343
F-0.16931482741964524
tp825
a(F1.360629330631175
F1.0362891190345345
F0.07377097419511838
F-1.7558926518735776
F-0.1984342150711357
F0.7197044627403804
F1.333633371639891
tp826
a(tag1
(g36
g3
Ntp827
Rp828
(lp829
I1
aI69603674
ababag1
(g29
g3
Ntp830
Rp831
(lp832
(F-0.01458077442900322
F-0.9925507805123774
F0.12863815543553844
F1.3241607416189574
F-0.04876128030639548
F1.1931964686198635
F-0.9606628256740217
tp833
a(F0.0
F0.0
F0.0
F0.0
F0.0
F0.0
F0.0
tp834
a(F1.602642223134094
F1.120598922374819
F0.10121624199701418
F-1.8818882378389141
F-0.23435019319811795
F0.7605782964518939
F1.6044523292946138
tp835
a(tag1
(g36
g3
Ntp836
Rp837
(lp838
I1
aI201394443
ababaabag1
(g229
g3
Ntp839
Rp840
(lp841
g1
(g11
g3
Ntp842
Rp843
(lp844
I0
ag1
(g15
g3
Ntp845
Rp846
(lp847
I0
aI0
abag239
aba(lp848
a(lp849
ababF1.4484350681304932
tp850
a.