(lp0
ccopy_reg
_reconstructor
p1
(cmoveit_msgs.msg._RobotTrajectory
RobotTrajectory
p2
c__builtin__
object
p3
Ntp4
Rp5
(lp6
g1
(ctrajectory_msgs.msg._JointTrajectory
JointTrajectory
p7
g3
Ntp8
Rp9
(lp10
g1
(cstd_msgs.msg._Header
Header
p11
g3
Ntp12
Rp13
(lp14
I0
ag1
(cgenpy.rostime
Time
p15
g3
Ntp16
Rp17
(lp18
I0
aI0
abaS'world'
p19
aba(lp20
S'left_s0'
p21
aS'left_s1'
p22
aS'left_e0'
p23
aS'left_e1'
p24
aS'left_w0'
p25
aS'left_w1'
p26
aS'left_w2'
p27
aa(lp28
g1
(ctrajectory_msgs.msg._JointTrajectoryPoint
JointTrajectoryPoint
p29
g3
Ntp30
Rp31
(lp32
(F-0.1622184683188825
F-1.1504855909140603
F-0.5200194870931553
F1.769830334022796
F0.26154372433446305
F0.9598884780192977
F0.279951493789088
tp33
a(F0.0
F0.0
F0.0
F0.0
F0.0
F0.0
F0.0
tp34
a(F-1.4361054266568618
F0.0
F0.0
F0.0
F0.0
F0.0
F0.0
tp35
a(tag1
(cgenpy.rostime
Duration
p36
g3
Ntp37
Rp38
(lp39
I0
aI0
ababag1
(g29
g3
Ntp40
Rp41
(lp42
(F-0.1759558672300433
F-1.1551069281803952
F-0.5227955318743089
F1.7777786255016477
F0.2618686954770084
F0.9568911195551643
F0.26185370123390317
tp43
a(F-0.17299934005347822
F-0.05425496096939862
F-0.033915950078024795
F0.09356323813031654
F0.004975452354766506
F-0.034872337763059036
F-0.22606257520100664
tp44
a(F-1.511314218529618
F-0.42753752586976274
F-0.2839985135520259
F0.7404444489469193
F0.05386313719925873
F-0.27079589170718055
F-1.9531041144833132
tp45
a(tag1
(g36
g3
Ntp46
Rp47
(lp48
I0
aI138316532
ababag1
(g29
g3
Ntp49
Rp50
(lp51
(F-0.18994130113626795
F-1.1593646146231151
F-0.5255033612127143
F1.7851297606126182
F0.2622996556306204
F0.9541655605024866
F0.2436387514783438
tp52
a(F-0.2842592987018787
F-0.08155812629179272
F-0.0536825269494601
F0.14122508738164402
F0.009916257975139842
F-0.051802701194714536
F-0.3679071814527395
tp53
a(F-1.4896826405506145
F-0.2560629179226261
F-0.23470973933452308
F0.4583755761518004
F0.09176247423859483
F-0.14779453846775362
F-1.8482829752920353
tp54
a(tag1
(g36
g3
Ntp55
Rp56
(lp57
I0
aI195011145
ababag1
(g29
g3
Ntp58
Rp59
(lp60
(F-0.2041699677866954
F-1.1632559260378914
F-0.5281384615922846
F1.7918846162548567
F0.2628403990508082
F0.9517105021765461
F0.22531202722174015
tp61
a(F-0.3553749033843904
F-0.09135401382041078
F-0.06418281490933506
F0.15918399709645933
F0.01490640386156935
F-0.05714514202556474
F-0.45502509519591083
tp62
a(F-1.6478043713302462
F-0.16393164916987757
F-0.22500921345418973
F0.3142556598119766
F0.13145113551303925
F-0.07930997825384932
F-1.9895931592795078
tp63
a(tag1
(g36
g3
Ntp64
Rp65
(lp66
I0
aI239221728
ababag1
(g29
g3
Ntp67
Rp68
(lp69
(F-0.21863675791775233
F-1.1667782350536282
F-0.5306962913390338
F1.798043881517835
F0.26349440695892584
F0.9495247646628266
F0.206879676156489
tp70
a(F-0.41576434902835246
F-0.09478246764854359
F-0.0716587230876195
F0.16656236715254433
F0.020389799164173935
F-0.05824861770712917
F-0.5267539536793087
tp71
a(F-1.5255539450977875
F-0.005231522495905853
F-0.1645525811104358
F0.05582158841046232
F0.1595303950343191
F0.029011007641241354
F-1.7745726421580967
tp72
a(tag1
(g36
g3
Ntp73
Rp74
(lp75
I0
aI276419899
ababag1
(g29
g3
Ntp76
Rp77
(lp78
(F-0.23333626039361313
F-1.1699290574845476
F-0.5331722998334061
F1.8036081171974474
F0.2642648178416884
F0.9476072635202436
F0.18834859392240327
tp79
a(F-0.46577115457620655
F-0.09291879154308891
F-0.07641475564286387
F0.16516442830562034
F0.02616811982372568
F-0.05589655812611509
F-0.5839842763342515
tp80
a(F-1.4530228251173651
F0.1227344471902997
F-0.11669689553954028
F-0.14939016302364078
F0.18639854371078995
F0.115557846043358
F-1.631263834942537
tp81
a(tag1
(g36
g3
Ntp82
Rp83
(lp84
I0
aI309630305
ababag1
(g29
g3
Ntp85
Rp86
(lp87
(F-0.2482627603622421
F-1.1727060883659948
F-0.5355619539300351
F1.8085777839664903
F0.26515438952457815
F0.9459570014933633
F0.16972642808656208
tp88
a(F-0.5118274726940196
F-0.08786366961772737
F-0.07971299706090361
F0.15862270712261958
F0.032415444200862266
F-0.051455225734971285
F-0.6351445851036936
tp89
a(F-1.5564980484566167
F0.21063816217147976
F-0.09777580910317472
F-0.2828029467047859
F0.2227164019305195
F0.1766959140187167
F-1.7103457265957924
tp90
a(tag1
(g36
g3
Ntp91
Rp92
(lp93
I0
aI340159531
ababag1
(g29
g3
Ntp94
Rp95
(lp96
(F-0.2634102398963152
F-1.1751072359247137
F-0.537860765408734
F1.812953267765275
F0.2661654638708106
F0.9445730608071838
F0.15102157694631108
tp97
a(F-0.5568829891781057
F-0.08051587331960017
F-0.08210446554670278
F0.14850018564792994
F0.03922671009097578
F-0.045506450504456564
F-0.684056796798582
tp98
a(F-1.6152997738232067
F0.30977762219421134
F-0.06947269749342631
F-0.4346735941979692
F0.25769750220262133
F0.24418340760680457
F-1.731451431535019
tp99
a(tag1
(g36
g3
Ntp100
Rp101
(lp102
I0
aI368486872
ababag1
(g29
g3
Ntp103
Rp104
(lp105
(F-0.2787723803831976
F-1.1771306526634437
F-0.5400643195158018
F1.8167349017249035
F0.26729993376769623
F0.9434545965556433
F0.13224318384770012
tp106
a(F-0.5999204544003187
F-0.07091020880751192
F-0.08347301673404069
F0.1348260857565181
F0.04648506295600194
F-0.038099215808587834
F-0.7295308553591718
tp107
a(F-1.6186011171576242
F0.4151989648754337
F-0.032223232345139075
F-0.5977603935998964
F0.2886325865527078
F0.3145355359233432
F-1.683984978033234
tp108
a(tag1
(g36
g3
Ntp109
Rp110
(lp111
I0
aI395017418
ababag1
(g29
g3
Ntp112
Rp113
(lp114
(F-0.2943425671314185
F-1.178774763547732
F-0.5421683041920777
F1.8199229850921288
F0.26855921353875445
F0.9426008307240563
F0.113401126051966
tp115
a(F-0.6399009428674116
F-0.05917441541787355
F-0.08373380518880735
F0.11776814482778895
F0.05404036897126546
F-0.029342325213496383
F-0.7703911370812078
tp116
a(F-1.5584452540992657
F0.5205614525991321
F0.012648193657395761
F-0.7626683575841039
F0.3126632405973289
F0.38344973858121534
F-1.5613961924481412
tp117
a(tag1
(g36
g3
Ntp118
Rp119
(lp120
I0
aI420098061
ababag1
(g29
g3
Ntp121
Rp122
(lp123
(F-0.31011389611341117
F-1.180038290974816
F-0.5441685397430562
F1.8225177991759944
F0.2699442132426525
F0.9420110467537042
F0.09450599801120803
tp124
a(F-0.675804683158028
F-0.04552924392529858
F-0.08283933082424155
F0.09763339549972086
F0.06171341421659933
F-0.019403269527400673
F-0.8055259121659044
tp125
a(F-1.4309584822598183
F0.6186563788233774
F0.06295814674835776
F-0.9185922914932241
F0.32708807909114795
F0.44616450610956926
F-1.3624127339641023
tp126
a(tag1
(g36
g3
Ntp127
Rp128
(lp129
I0
aI444030385
ababag1
(g29
g3
Ntp130
Rp131
(lp132
(F-0.32607918285787163
F-1.1809202762947968
F-0.5460610086344662
F1.8245196204413703
F0.2714553173962751
F0.9416845844783673
F0.07556908884699232
tp133
a(F-0.7102775139037337
F-0.030394490687319503
F-0.08118094266680123
F0.07517537108399548
F0.06966766100449906
F-0.008517882698067985
F-0.8381687077853424
tp134
a(F-1.5619318368408746
F0.6956944219532006
F0.08124787625361382
F-1.0317124177037766
F0.36360935404095873
F0.4991110533304662
F-1.4713101053023565
tp135
a(tag1
(g36
g3
Ntp136
Rp137
(lp138
I0
aI467081209
ababag1
(g29
g3
Ntp139
Rp140
(lp141
(F-0.34223097349273873
F-1.1814200969945103
F-0.5478418849942568
F1.8259287297879823
F0.2730923683242034
F0.9416208364739556
F0.056602354282321424
tp142
a(F-0.7389713054728667
F-0.013958668216103406
F-0.07838008044275506
F0.05050718395221472
F0.07735748354034826
F0.0031194887834399593
F-0.8633343158671956
tp143
a(F-1.0034663840340918
F0.7795459551844611
F0.1712342899156867
F-1.18280675190451
F0.3255039490866892
F0.545242266211198
F-0.7757014908708405
tp144
a(tag1
(g36
g3
Ntp145
Rp146
(lp147
I0
aI489269484
ababag1
(g29
g3
Ntp148
Rp149
(lp150
(F-0.35856155814241225
F-1.1815374810814958
F-0.5495075635492047
F1.8267454208398888
F0.27485465541379217
F0.9418192427726947
F0.03761838193779103
tp151
a(F-0.75
F0.003325927278406739
F-0.07340791816106565
F0.023857404474257767
F0.08333317685916418
F0.01501070568123033
F-0.867438652804254
tp152
a(F0.0
F0.7965018908969412
F0.2823642183181077
F-1.2472607700160332
F0.21913465628038412
F0.5389872631428777
F0.4039732926867295
tp153
a(tag1
(g36
g3
Ntp154
Rp155
(lp156
I0
aI511043597
ababag1
(g29
g3
Ntp157
Rp158
(lp159
(F-0.37506298646448727
F-1.1812725155035821
F-0.5510546873689132
F1.8269700025778297
F0.2767409092078402
F0.9422792890547734
F0.018630351900202718
tp160
a(F-0.75
F0.020578092744903714
F-0.0672372590479958
F-0.003159594879241363
F0.08806149771549956
F0.02668448491746319
F-0.8585877061039038
tp161
a(F0.0
F0.7720587610404012
F0.2786444958983262
F-1.2091143858291138
F0.21077097943798348
F0.5223888253048651
F0.4007047305254875
tp162
a(tag1
(g36
g3
Ntp163
Rp164
(lp165
I0
aI533045501
ababag1
(g29
g3
Ntp166
Rp167
(lp168
(F-0.3917270855318494
F-1.1806256521037994
F-0.552480174289459
F1.8266028021121292
F0.2787493021540669
F0.9430005020463916
F-0.0003480093611340797
tp169
a(F-0.75
F0.03747676522061052
F-0.06108830844503756
F-0.02963809465335479
F0.09264725506970628
F0.03812426218796247
F-0.8497070319879052
tp170
a(F0.0
F0.7493552242956559
F0.27493353034691237
F-1.174780576565721
F0.20210386562607707
F0.5075497411151545
F0.3987886572647646
tp171
a(tag1
(g36
g3
Ntp172
Rp173
(lp174
I0
aI555264300
ababag1
(g29
g3
Ntp175
Rp176
(lp177
(F-0.40854547998438406
F-1.1795977075211037
F-0.5537812412866634
F1.825644162097314
F0.2808774547457728
F0.9439824482483397
F-0.019302479369741946
tp178
a(F-0.75
F0.054041212312256004
F-0.05496581925303328
F-0.05563218301968098
F0.09707806340637673
F0.04935569525972692
F-0.8407731458430279
tp179
a(F0.0
F0.7282776232392377
F0.27120549390162274
F-1.1440138837480582
F0.19316149077269906
F0.49434630429926574
F0.3981116941605347
tp180
a(tag1
(g36
g3
Ntp181
Rp182
(lp183
I0
aI577688826
ababag1
(g29
g3
Ntp184
Rp185
(lp186
(F-0.42550961440308765
F-1.1781898600617398
F-0.5549554266702981
F1.8240944376681414
F0.2831224481376821
F0.9452247307116147
F-0.0382183956420109
tp187
a(F-0.75
F0.07028992569245138
F-0.04887502434426219
F-0.08119385085019201
F0.10134226288538442
F0.060403239632369404
F-0.8317642479738065
tp188
a(F0.0
F0.7087294623804565
F0.2674386500278575
F-1.1166002857865136
F0.18397357938881959
F0.48267198017977875
F0.39857199613103617
tp189
a(tag1
(g36
g3
Ntp190
Rp191
(lp192
I0
aI600307672
ababag1
(g29
g3
Ntp193
Rp194
(lp195
(F-0.4426107779418569
F-1.1764036408138077
F-0.5560006094706249
F1.8219539885927518
F0.28548084226570686
F0.9467269887593632
F-0.05708071506019295
tp196
a(F-0.75
F0.08624078245358804
F-0.04282155477470349
F-0.10637322205294558
F0.10542902314053576
F0.0712902464840991
F-0.8226601636777792
tp197
a(F0.0
F0.690624326922042
F0.2636147744015408
F-1.0923456970148449
F0.17457255370895794
F0.472426788242606
F0.4000749307014558
tp198
a(tag1
(g36
g3
Ntp199
Rp200
(lp201
I0
aI623109223
ababag1
(g29
g3
Ntp202
Rp203
(lp204
(F-0.4598401310847807
F-1.1742409217630152
F-0.5569150258621394
F1.819223170897374
F0.28794870003748446
F0.9484888960678599
F-0.07587407775828615
tp205
a(F-0.75
F0.10191118527132254
F-0.036811357440496975
F-0.13121875287256102
F0.10932843545644781
F0.08203904777247005
F-0.8134422748477458
tp206
a(F0.0
F0.6738894036505887
F0.2597192403678861
F-1.071081233454725
F0.16499155994013054
F0.4635250245665575
F0.40253643712679593
tp207
a(tag1
(g36
g3
Ntp208
Rp209
(lp210
I0
aI646081694
ababag1
(g29
g3
Ntp211
Rp212
(lp213
(F-0.4771887344296624
F-1.1717038984473935
F-0.5576972821878868
F1.815902323922397
F0.2905216164804381
F0.9505101617303561
F-0.09458287280461354
tp214
a(F-0.75
F0.11731818473415129
F-0.03085060934925233
F-0.1557774082911596
F0.11303159151915643
F0.09267103654523516
F-0.804093447052639
tp215
a(F0.0
F0.6584590643721504
F0.2557407706844823
F-1.0526530282177267
F0.15526553812329935
F0.4558857059022111
F0.4058785295685318
tp216
a(tag1
(g36
g3
Ntp217
Rp218
(lp219
I0
aI669213165
ababag1
(g29
g3
Ntp220
Rp221
(lp222
(F-0.4946475794920964
F-1.1687950699195022
F-0.5583463643700847
F1.8119917568612907
F0.29319475321998667
F0.9527905299833398
F-0.11319130712201533
tp223
a(F-0.75
F0.132478580767212
F-0.02494563367443784
F-0.18009481110526784
F0.11653064764104928
F0.10320673448601256
F-0.7945979483521057
tp224
a(F0.0
F0.6442782824382178
F0.2516711457480021
F-1.0369273804735035
F0.14542927075310733
F0.44943963413649646
F0.4100330270217121
tp225
a(tag1
(g36
g3
Ntp226
Rp227
(lp228
I0
aI692491625
ababag1
(g29
g3
Ntp229
Rp230
(lp231
(F-0.5122076211478914
F-1.165517213813756
F-0.5588616435608095
F1.8074917310242171
F0.29596287693284845
F0.9553297828642092
F-0.13168347438144098
tp232
a(F-0.75
F0.1474090196538901
F-0.019102816753874492
F-0.20421539110350295
F0.11981886953333067
F0.11366587559177174
F-0.7849413500020166
tp233
a(F0.0
F0.6312979061239595
F0.2475051102499326
F-1.0237833629687216
F0.13551809179858773
F0.44412258739351546
F0.4149380486229966
tp234
a(tag1
(g36
g3
Ntp235
Rp236
(lp237
I0
aI715905014
ababag1
(g29
g3
Ntp238
Rp239
(lp240
(F-0.5298598117150722
F-1.1618733586700651
F-0.5592428778643402
F1.8024024407432864
F0.29882040179820507
F0.9581277427374023
F-0.15004342486201516
tp241
a(F-0.75
F0.16212605173633954
F-0.013328525845516345
F-0.2281824813778967
F0.12289066931541456
F0.12406744672241363
F-0.7751104414159673
tp242
a(F0.0
F0.6194751905641248
F0.24324017205368542
F-1.013113608320158
F0.12556701965607256
F0.4398773291541317
F0.4205390152954199
tp243
a(tag1
(g36
g3
Ntp244
Rp245
(lp246
I0
aI739441268
ababag1
(g29
g3
Ntp247
Rp248
(lp249
(F-0.5475951364333221
F-1.1578667529947062
F-0.5594902100698421
F1.7967239916317752
F0.3017614350321861
F0.9611842762339483
F-0.16825523464461473
tp250
a(F-0.75
F0.17664619377210336
F-0.00762903195722228
F-0.2520384297700053
F0.1257416200753484
F0.13442975627124537
F-0.7650931201678435
tp251
a(F0.0
F0.6087730146580732
F0.23887621320535107
F-1.004823024727699
F0.11561024485106756
F0.43665307552018684
F0.42678863268703326
tp252
a(tag1
(g36
g3
Ntp253
Rp254
(lp255
I0
aI763088368
ababag1
(g29
g3
Ntp256
Rp257
(lp258
(F-0.5654046499573062
F-1.1535008313352377
F-0.5596041615074814
F1.790456376121704
F0.3047798246894335
F0.9644992997559265
F-0.18630307292236745
tp259
a(F-0.75
F0.19098597369692763
F-0.0020104382699917076
F-0.27582469132205
F0.1283684558311124
F0.14477049146543847
F-0.7548782790759758
tp260
a(F0.0
F0.5991585982927462
F0.23441531988692355
F-0.9988268129258775
F0.10568097603566863
F0.43440418044084567
F0.43364608168106145
tp261
a(tag1
(g36
g3
Ntp262
Rp263
(lp264
I0
aI786834386
ababag1
(g29
g3
Ntp265
Rp266
(lp267
(F-0.5832795136635526
F-1.148779177963838
F-0.5595856220969112
F1.7835994466325085
F0.3078692091001861
F0.9680727862383385
F-0.20417126689622905
tp268
a(F-0.75
F0.20516195424769357
F0.003521389765837898
F-0.29958189766070825
F0.13076906239411018
F0.15510676132138196
F-0.7444557010516606
tp269
a(F0.0
F0.5906025120406346
F0.2298617881572691
F-0.995048996025868
F0.095811403205268
F0.4330894461730299
F0.4410762004054571
tp270
a(tag1
(g36
g3
Ntp271
Rp272
(lp273
I0
aI810667537
ababag1
(g29
g3
Ntp274
Rp275
(lp276
(F-0.6012110337415804
F-1.143705488603352
F-0.5594358366134387
F1.7761528864224727
F0.31102306738913166
F0.9719047732054258
F-0.22184436395933943
tp277
a(F-0.75
F0.21919075887501188
F0.008960882222418554
F-0.3233499366748126
F0.1329424477081252
F0.16545515305933345
F-0.733815934579744
tp278
a(F0.0
F0.5830794346185761
F0.22522113593597975
F-0.993423369964178
F0.0860315813772893
F0.43267322211357423
F0.4490510556025485
tp279
a(tag1
(g36
g3
Ntp280
Rp281
(lp282
I0
aI834576231
ababag1
(g29
g3
Ntp283
Rp284
(lp285
(F-0.6191906990504441
F-1.1382835299426393
F-0.5591563878281284
F1.7681161772352032
F0.3142347697227649
F0.9759953729474752
F-0.23930718859035566
tp286
a(F-0.75
F0.23308908106862794
F0.014302819816183102
F-0.34716801570015077
F0.13488870557714605
F0.17583177822855794
F-0.7229501788759336
tp287
a(F0.0
F0.5765656207061319
F0.22050095406308795
F-0.9938898746954162
F0.07637054776556437
F0.43312277395845994
F0.4575467760413276
tp288
a(tag1
(g36
g3
Ntp289
Rp290
(lp291
I0
aI858549118
ababag1
(g29
g3
Ntp292
Rp293
(lp294
(F-0.6372102195472765
F-1.1325170980940102
F-0.558749176182763
F1.7594885647794762
F0.3174976275217795
F0.9803447838675401
F-0.2565448959529554
tp295
a(F-0.75
F0.24687368901567752
F0.019542379131387864
F-0.3710747241416431
F0.13660896708038922
F0.18625231820755442
F-0.7118501650186828
tp296
a(F0.0
F0.5710406759824777
F0.21570936005493874
F-0.9963969371157254
F0.06685470376524826
F0.43441023311362514
F0.4665463478687768
tp297
a(tag1
(g36
g3
Ntp298
Rp299
(lp300
I0
aI882575145
ababag1
(g29
g3
Ntp301
Rp302
(lp303
(F-0.6552615636989796
F-1.1264099753796382
F-0.558216397093948
F1.7502690206939655
F0.32080494191252684
F0.9849533041226128
F-0.2735430185039463
tp304
a(F-0.75
F0.26056142828711515
F0.02467516966126941
F-0.39510809966174343
F0.13810534235359767
F0.1967320742729125
F-0.7005080348883332
tp305
a(F0.0
F0.5664852763335262
F0.2108560250837233
F-1.0008982577844856
F0.05750911260440399
F0.43651045207834316
F0.4760363908331319
tp306
a(tag1
(g36
g3
Ntp307
Rp308
(lp309
I0
aI906643604
ababag1
(g29
g3
Ntp310
Rp311
(lp312
(F-0.6733369958945784
F-1.1199658864041813
F-0.5575605155165875
F1.7404562017334668
F0.3241500508517804
F0.989821346891715
F-0.29028750797948955
tp313
a(F-0.75
F0.2741692153432622
F0.029697266546443418
F-0.4193056871607251
F0.13938085972203362
F0.20728601105024025
F-0.6889162307613117
tp314
a(F0.0
F0.5628823319982785
F0.20595098134947815
F-1.0073542738171042
F0.04835642192775401
F0.4394020420280244
F0.48600894101566383
tp315
a(tag1
(g36
g3
Ntp316
Rp317
(lp318
I0
aI930744180
ababag1
(g29
g3
Ntp319
Rp320
(lp321
(F-0.6914291126323906
F-1.1131884530680662
F-0.5567842387375592
F1.7300484052485514
F0.3275263736339861
F0.9949494578985866
F-0.30676477014149944
tp322
a(F-0.7317996328525308
F0.2805680219877936
F0.03370660860125605
F-0.4326397863169393
F0.13701978690285999
F0.21251057839691825
F-0.6607822225555628
tp323
a(F1.4710436806081804
F-0.03129688320301579
F0.12337345888195674
F-0.0961483440959546
F-0.23795272662251502
F-0.005883862487199495
F1.800356057261256
tp324
a(tag1
(g36
g3
Ntp325
Rp326
(lp327
I0
aI954867003
ababag1
(g29
g3
Ntp328
Rp329
(lp330
(F-0.7095308776186756
F-1.106081148858166
F-0.5558904876103219
F1.719043520930062
F0.3309274526233814
F1.0003383350554247
F-0.3229616927423656
tp331
a(F-0.6962822408623994
F0.2794833559151456
F0.036519793322161424
F-0.43451140623266826
F0.13115763537768413
F0.21217167698122819
F-0.6174690748174589
tp332
a(F1.3312570166605022
F-0.05361674377619177
F0.09892022116613879
F-0.05243166522244029
F-0.22433081926568849
F-0.02045689532203898
F1.6173392886767917
tp333
a(tag1
(g36
g3
Ntp334
Rp335
(lp336
I0
aI980233852
ababag1
(g29
g3
Ntp337
Rp338
(lp339
(F-0.7276356559541601
F-1.0986472524705682
F-0.5548823664397541
F1.707438978379099
F0.33434699207814034
F1.0059888504865475
F-0.3388656670282017
tp340
a(F-0.6592905813372371
F0.27644692929715875
F0.038677227867748465
F-0.4332677205530442
F0.12475252624037597
F0.21042406786118534
F-0.573807894340432
tp341
a(F1.4317684003391047
F-0.17021285490993132
F0.06336122633964601
F0.14013893382620266
F-0.2537576025832431
F-0.10781254756649312
F1.64631245741915
tp342
a(tag1
(g36
g3
Ntp343
Rp344
(lp345
I1
aI6899104
ababag1
(g29
g3
Ntp346
Rp347
(lp348
(F-0.7457372466294219
F-1.0908898005978205
F-0.5537631323048597
F1.6952316899113316
F0.33777889333446665
F1.0119020750734673
F-0.3544646013467799
tp349
a(F-0.6151452711112637
F0.26892019789701804
F0.03980248449078501
F-0.42483662686990986
F0.11675968401321024
F0.20530586796913236
F-0.525054998258213
tp350
a(F1.6609647577159674
F-0.35212245992069713
F0.017279720323394986
F0.4415570610270176
F-0.30583673660733374
F-0.24684326858508135
F1.7735997874516485
tp351
a(tag1
(g36
g3
Ntp352
Rp353
(lp354
I1
aI35199822
ababag1
(g29
g3
Ntp355
Rp356
(lp357
(F-0.763829913926214
F-1.0828115398744882
F-0.5525361638105237
F1.682417988075787
F0.3412172866148296
F1.0180793057948956
F-0.36974692794766995
tp358
a(F-0.562702300701933
F0.25604539646754165
F0.039716298496213914
F-0.4077010326603813
F0.10699070846757207
F0.19611773066671645
F-0.47062878985547907
tp359
a(F1.736353454366401
F-0.4771661965765459
F-0.021152649303058196
F0.6598606559211794
F-0.32670447567638244
F-0.3446004981058335
F1.756453506486358
tp360
a(tag1
(g36
g3
Ntp361
Rp362
(lp363
I1
aI65830337
ababag1
(g29
g3
Ntp364
Rp365
(lp366
(F-0.7819084172403719
F-1.0744148777003986
F-0.5512049299007128
F1.6689935571497707
F0.34465655902606246
F1.0245220960453159
F-0.38470160201907105
tp367
a(F-0.5000763281779184
F0.23645308694583136
F0.038139752061497084
F-0.3794535520769696
F0.09512392785654722
F0.1817488478024521
F-0.4095104309357451
tp368
a(F1.908996769351322
F-0.6558352820710877
F-0.06807655929309989
F0.970497171665521
F-0.3637803135836836
F-0.4857338639497615
F1.808107699204118
tp369
a(tag1
(g36
g3
Ntp370
Rp371
(lp372
I1
aI99638994
ababag1
(g29
g3
Ntp373
Rp374
(lp375
(F-0.7999680397707231
F-1.06570183166548
F-0.5497729588200275
F1.6549533577522866
F0.348091378967186
F1.031232289334072
F-0.39931809358141274
tp376
a(F-0.42911154613029023
F0.21057819205926376
F0.03510290784824796
F-0.3405705927092384
F0.08155863765137117
F0.16246836821266863
F-0.3437113237018582
tp377
a(F1.7143943484687745
F-0.6595630201931848
F-0.08503546128957379
F1.0040397304158026
F-0.32868775256845706
F-0.49400248202721203
F1.5569707310273984
tp378
a(tag1
(g36
g3
Ntp379
Rp380
(lp381
I1
aI138441623
ababag1
(g29
g3
Ntp382
Rp383
(lp384
(F-0.8180046160077128
F-1.0566739771408395
F-0.5482438076095134
F1.6402915435717365
F0.3515167168540074
F1.0382120566901962
F-0.41358637185529634
tp385
a(F-0.34153451680606567
F0.1735840493731115
F0.02972816210577616
F-0.28286931832319406
F0.06478743361483949
F0.13444242633088205
F-0.2674659950159642
tp386
a(F1.8993764325365774
F-0.8530463288512764
F-0.13240314265532824
F1.3499195868446645
F-0.3634389449251603
F-0.6506965985000799
F1.6030750865748697
tp387
a(tag1
(g36
g3
Ntp388
Rp389
(lp390
I1
aI184359536
ababag1
(g29
g3
Ntp391
Rp392
(lp393
(F-0.8360145582706066
F-1.0473323924435518
F-0.5466210324663849
F1.6250013689622649
F0.3549278625459952
F1.0454639383474214
F-0.427496882510469
tp394
a(F-0.20987968906145002
F0.11004572955255577
F0.019245130212326683
F-0.18056585855737695
F0.03970527522344762
F0.08554357916358221
F-0.16086806207147347
tp395
a(F1.6005764723504885
F-0.806646822282731
F-0.13756800546596795
F1.311456927483375
F-0.30408392329986783
F-0.6239116858494268
F1.2609157772720017
tp396
a(tag1
(g36
g3
Ntp397
Rp398
(lp399
I1
aI246405319
ababag1
(g29
g3
Ntp400
Rp401
(lp402
(F-0.8539948835682596
F-1.0376776011885775
F-0.5449081587537344
F1.6090750859044853
F0.358320438675289
F1.0529908901014728
F-0.4410405170257054
tp403
a(F0.0
F0.0
F0.0
F0.0
F0.0
F0.0
F0.0
tp404
a(F1.8651346342708268
F-1.0015105543534357
F-0.1776797712338112
F1.6520647782797708
F-0.35191861845638206
F-0.7807855628062227
F1.4049079418808081
tp405
a(tag1
(g36
g3
Ntp406
Rp407
(lp408
I1
aI385259409
ababaabag1
(ctrajectory_msgs.msg._MultiDOFJointTrajectory
MultiDOFJointTrajectory
p409
g3
Ntp410
Rp411
(lp412
g1
(g11
g3
Ntp413
Rp414
(lp415
I0
ag1
(g15
g3
Ntp416
Rp417
(lp418
I0
aI0
abaS''
p419
aba(lp420
a(lp421
ababag1
(g2
g3
Ntp422
Rp423
(lp424
g1
(g7
g3
Ntp425
Rp426
(lp427
g1
(g11
g3
Ntp428
Rp429
(lp430
I0
ag1
(g15
g3
Ntp431
Rp432
(lp433
I0
aI0
abaS'world'
p434
aba(lp435
S'left_s0'
p436
aS'left_s1'
p437
aS'left_e0'
p438
aS'left_e1'
p439
aS'left_w0'
p440
aS'left_w1'
p441
aS'left_w2'
p442
aa(lp443
g1
(g29
g3
Ntp444
Rp445
(lp446
(F-0.864781669170402
F-1.0377380030044825
F-0.5576020163963479
F1.613364293658484
F0.35473305719850196
F1.0473253829287663
F-0.43756801974431425
tp447
a(F0.0
F0.0
F0.0
F0.0
F0.0
F0.0
F0.0
tp448
a(F-0.09112477793395408
F0.0
F0.0
F0.0
F0.0
F0.0
F0.0
tp449
a(tag1
(g36
g3
Ntp450
Rp451
(lp452
I0
aI0
ababag1
(g29
g3
Ntp453
Rp454
(lp455
(F-0.8663235622404744
F-1.0187151078545362
F-0.5510170279710254
F1.5801585819618507
F0.3588244444093572
F1.0614819338971428
F-0.42705685883312133
tp456
a(F-0.0157984045223863
F0.17594673198460078
F0.059514236668099504
F-0.3095345160868408
F0.03620099344101768
F0.13219043087719382
F0.09722159702202057
tp457
a(F-0.11339459092805729
F1.1090506039310646
F0.3626326267712402
F-1.9727357817107365
F0.21344045344759502
F0.8445039722967511
F0.6128350068092524
tp458
a(tag1
(g36
g3
Ntp459
Rp460
(lp461
I0
aI183960205
ababag1
(g29
g3
Ntp462
Rp463
(lp464
(F-0.8681265804943197
F-0.999416306236266
F-0.5445527054539913
F1.5460972275344675
F0.3627202584132803
F1.0760385231066205
F-0.4163929849833296
tp465
a(F-0.028429471086510297
F0.28333591698485294
F0.0931685892038964
F-0.5030954224368922
F0.05520484353868315
F0.21527737059475424
F0.15652966907395163
tp466
a(F-0.1497544030597528
F1.0008879560607433
F0.2853551595738342
F-1.8533238737817037
F0.144847294670826
F0.7998727624464408
F0.5521295002670543
tp467
a(tag1
(g36
g3
Ntp468
Rp469
(lp470
I0
aI261625817
ababag1
(g29
g3
Ntp471
Rp472
(lp473
(F-0.8701994149087054
F-0.9798124870612799
F-0.5382003193247472
F1.5111250744076046
F0.36643222831348055
F1.0910179461861538
F-0.40556454928996755
tp474
a(F-0.03882374366054615
F0.34555912702579206
F0.10998811542267824
F-0.6199347322321689
F0.06322073816900142
F0.26583334939598685
F0.19079825298041775
tp475
a(F-0.18004110383712957
F0.9514160145343504
F0.2392587158213093
F-1.8180891341871148
F0.10331369668859999
F0.7891672313772314
F0.5228852069487615
tp476
a(tag1
(g36
g3
Ntp477
Rp478
(lp479
I0
aI323237003
ababag1
(g29
g3
Ntp480
Rp481
(lp482
(F-0.8725523978276148
F-0.9598709051914696
F-0.5319509031754224
F1.4751786372442897
F0.3699717359465603
F1.1064467876785142
F-0.39455767601713504
tp483
a(F-0.048817290191894604
F0.3924087519341649
F0.12083477332368545
F-0.711121394069177
F0.06733957459292426
F0.3055383871787031
F0.21646875647904487
tp484
a(F-0.18730375378671643
F0.7578581107105798
F0.1542044986387255
F-1.5128189273678325
F0.04460830515212646
F0.6614924463124737
F0.4134963658185439
tp485
a(tag1
(g36
g3
Ntp486
Rp487
(lp488
I0
aI376709406
ababag1
(g29
g3
Ntp489
Rp490
(lp491
(F-0.8751977617074675
F-0.9395545091563626
F-0.5257952077112874
F1.4381846061237955
F0.3733498327408604
F1.122356113947843
F-0.38335611111197054
tp492
a(F-0.055852682689394556
F0.4098692901269313
F0.12211693233186169
F-0.75
F0.06598724593301486
F0.32283141693581063
F0.22582441193146086
tp493
a(F-0.08872871261569129
F-0.08051011236136933
F-0.10706002517701285
F0.0
F-0.09978879038297878
F0.011702809642584494
F-0.050757116110302675
tp494
a(tag1
(g36
g3
Ntp495
Rp496
(lp497
I0
aI426034781
ababag1
(g29
g3
Ntp498
Rp499
(lp500
(F-0.8781500163056049
F-0.9188210145471727
F-0.519723592736301
F1.400057855372858
F0.3765773134655183
F1.138782361527355
F-0.37194078703623495
tp501
a(F-0.060253937181075176
F0.4059069356528036
F0.11686233675965044
F-0.75
F0.061160878059265684
F0.3234006819603294
F0.2232888522987066
tp502
a(F-0.08438190507902603
F-0.07535685739244675
F-0.0996487260075508
F0.0
F-0.09011842556477807
F0.010694496932012574
F-0.048960819333429856
tp503
a(tag1
(g36
g3
Ntp504
Rp505
(lp506
I0
aI476870449
ababag1
(g29
g3
Ntp507
Rp508
(lp509
(F-0.8814264359479745
F-0.897621715288744
F-0.5137258856185692
F1.3606988797375261
F0.3796648019389303
F1.155768483448017
F-0.3602892569023007
tp510
a(F-0.0645752171332802
F0.4020780737267335
F0.11181376230046361
F-0.75
F0.05666574921588932
F0.3239390641226365
F0.2207649447255151
tp511
a(F-0.08025046152759868
F-0.07053437732220663
F-0.09272648398389194
F0.0
F-0.0812127533794711
F0.009822668407548056
F-0.04718471653356579
tp512
a(tag1
(g36
g3
Ntp513
Rp514
(lp515
I0
aI529349083
ababag1
(g29
g3
Ntp516
Rp517
(lp518
(F-0.885047697255691
F-0.8758999347715664
F-0.5077911943628315
F1.319990444850867
F0.38262285327136847
F1.1733654492653356
F-0.3483749496255061
tp519
a(F-0.06882609390808231
F0.3983713611458888
F0.10695543948477562
F-0.75
F0.052480827734126205
F0.32445212386744066
F0.21825002932249737
tp520
a(F-0.07631779830980398
F-0.06601029895913346
F-0.08624974383860362
F0.0
F-0.07300181451785985
F0.00907902872374414
F-0.04543458705059812
tp521
a(tag1
(g36
g3
Ntp522
Rp523
(lp524
I0
aI583626996
ababag1
(g29
g3
Ntp525
Rp526
(lp527
(F-0.8890387272660012
F-0.8535889724000494
F-0.5019076572612888
F1.277793137999376
F0.38546207962625784
F1.1916342401780387
F-0.33616617537749854
tp528
a(F-0.07301846673309588
F0.3947785373738201
F0.10226649838832699
F-0.75
F0.04858815827927075
F0.32494517680324403
F0.21574388788251425
tp529
a(F-0.07262953593204588
F-0.06165833753040947
F-0.08037238429529456
F0.0
F-0.06537584956016847
F0.008442024680550896
F-0.043597189975175886
tp530
a(tag1
(g36
g3
Ntp531
Rp532
(lp533
I0
aI639890072
ababag1
(g29
g3
Ntp534
Rp535
(lp536
(F-0.8934301726363502
F-0.8306084032055999
F-0.49606260702538746
F1.233938197398928
F0.38819353560202385
F1.2106490014806297
F-0.3236240516520915
tp537
a(F-0.07715705328148598
F0.39128096858641875
F0.09774653441292952
F-0.75
F0.044967789655449744
F0.3254258111750408
F0.21323092573717234
tp538
a(F-0.06883941624168656
F-0.05790968172853233
F-0.0741743744489525
F0.0
F-0.05845115991509501
F0.00798774183344162
F-0.042283409481444094
tp539
a(tag1
(g36
g3
Ntp540
Rp541
(lp542
I0
aI698363326
ababag1
(g29
g3
Ntp543
Rp544
(lp545
(F-0.8982582476914591
F-0.8068647966622277
F-0.490239832050219
F1.188224905387133
F0.39082800281734087
F1.2304985840952436
F-0.31070434718736767
tp546
a(F-0.08125981065976193
F0.3878720413677245
F0.09337466590840479
F-0.75
F0.0416028105856521
F0.3258991618697585
F0.21071343774041468
tp547
a(F-0.06566593016071703
F-0.053879278553270245
F-0.06918835465757366
F0.0
F-0.05195131146563103
F0.0075325820080810995
F-0.04025207714735015
tp548
a(tag1
(g36
g3
Ntp549
Rp550
(lp551
I0
aI759314382
ababag1
(g29
g3
Ntp552
Rp553
(lp554
(F-0.9035707608298212
F-0.7822372956326749
F-0.48442289370339814
F1.1403973418446427
F0.39337771917365705
F1.2512961788147154
F-0.2973471694099298
tp555
a(F-0.08534440183812968
F0.3845458259558485
F0.08912515469745279
F-0.75
F0.03848093396868646
F0.32637171396508224
F0.20819033244841195
tp556
a(F-0.0623055343576013
F-0.050350832246412236
F-0.06399047210892066
F0.0
F-0.04593969425382492
F0.007269632088054759
F-0.038783171952019406
tp557
a(tag1
(g36
g3
Ntp558
Rp559
(lp560
I0
aI823084467
ababag1
(g29
g3
Ntp561
Rp562
(lp563
(F-0.9094263528382706
F-0.7565785067624952
F-0.4785906589562394
F1.090138494442866
F0.39585574263868606
F1.2731828613404892
F-0.28348093445077255
tp564
a(F-0.08942032846979311
F0.3812828128599255
F0.08499540267761174
F-0.75
F0.03558772693010784
F0.32685375006255557
F0.20563974772071225
tp565
a(F-0.059176819961924296
F-0.04692682273317863
F-0.05914011939209616
F0.0
F-0.04037929574669161
F0.007092334154846742
F-0.037226115855912685
tp566
a(tag1
(g36
g3
Ntp567
Rp568
(lp569
I0
aI890096263
ababag1
(g29
g3
Ntp570
Rp571
(lp572
(F-0.9159016722360951
F-0.729698101720004
F-0.47271723249422765
F1.037038397382538
F0.39827686208211943
F1.2963414493015766
F-0.2690124184536851
tp573
a(F-0.09351127669598833
F0.378071354577561
F0.0809673974781131
F-0.75
F0.032909860470697605
F0.3273547087188968
F0.20305245745035444
tp574
a(F-0.056179331722645734
F-0.04365637933467869
F-0.054490812489260854
F0.0
F-0.03522426592432225
F0.007024888693233097
F-0.035718685445116215
tp575
a(tag1
(g36
g3
Ntp576
Rp577
(lp578
I0
aI960896393
ababag1
(g29
g3
Ntp579
Rp580
(lp581
(F-0.9230988108865924
F-0.7013446258193361
F-0.4667692651066254
F0.980553868888919
F0.4006584893836768
F1.3210147435347843
F-0.2538182521630053
tp582
a(F-0.09764405449639149
F0.3748951059737923
F0.07702568129846983
F-0.75
F0.030434735044844806
F0.32788734958783394
F0.20041022820548485
tp583
a(F-0.05330486245315145
F-0.04051854119119289
F-0.04999015143476611
F0.0
F-0.030447231910195074
F0.007071822159440694
F-0.0342656329667555
tp584
a(tag1
(g36
g3
Ntp585
Rp586
(lp587
I1
aI36209097
ababag1
(g29
g3
Ntp588
Rp589
(lp590
(F-0.931158481752542
F-0.6711737227506732
F-0.46070181061789056
F0.9199394671301933
F0.4030221511281314
F1.3475366464569947
F-0.23772935222472213
tp591
a(F-0.09537747387148995
F0.3745516213044118
F0.057733194651371555
F-0.75
F0.041085374234067336
F0.3301536639923245
F0.19308208451605635
tp592
a(F0.10306071740363784
F0.02935131416808885
F-0.41111226968277975
F0.0
F0.2806718671947866
F0.047184020402130586
F-0.14202178742463825
tp593
a(tag1
(g36
g3
Ntp594
Rp595
(lp596
I1
aI117028300
ababag1
(g29
g3
Ntp597
Rp598
(lp599
(F-0.9391605617449018
F-0.6381396560962521
F-0.45715112489169224
F0.8540101714087314
F0.4076745142514622
F1.3767340015429064
F-0.22128294389516112
tp600
a(F-0.09448973907759231
F0.3521986505771512
F0.050557416751021864
F-0.711121394069177
F0.03773837041641761
F0.3136033824730583
F0.18059164416248458
tp601
a(F-0.07061364688427231
F-0.4815299832240683
F0.20749255352622648
F0.7935729085530121
F-0.3099717340632055
F-0.37844174413066956
F-0.13267076353991455
tp602
a(tag1
(g36
g3
Ntp603
Rp604
(lp605
I1
aI204934027
ababag1
(g29
g3
Ntp606
Rp607
(lp608
(F-0.949745120110787
F-0.6026297670121643
F-0.4505893106567748
F0.7813664879896579
F0.4101115516032626
F1.408618984948515
F-0.20247028568571163
tp609
a(F-0.07022995750912957
F0.2320774083839129
F0.04229144867732034
F-0.4760179734775527
F0.015615684085141787
F0.20908646730316466
F0.1226927411421291
tp610
a(F0.2758660845327545
F-0.9606819653375792
F-0.18343198362986785
F1.9528566886853336
F-0.06903398185919335
F-0.8556486462880392
F-0.5115311690629131
tp611
a(tag1
(g36
g3
Ntp612
Rp613
(lp614
I1
aI312995705
ababag1
(g29
g3
Ntp615
Rp616
(lp617
(F-0.9622373925202374
F-0.5627975981303215
F-0.44357775369617997
F0.6991459227076472
F0.4126620050541297
F1.4447963639463226
F-0.18151980166630086
tp618
a(F0.0
F0.0
F0.0
F0.0
F0.0
F0.0
F0.0
tp619
a(F0.28932416463190813
F-0.9225230293968021
F-0.1623894191467122
F1.90424892974517
F-0.05906914209991588
F-0.8378771783101998
F-0.4852184685761942
tp620
a(tag1
(g36
g3
Ntp621
Rp622
(lp623
I1
aI606857662
ababaabag1
(g409
g3
Ntp624
Rp625
(lp626
g1
(g11
g3
Ntp627
Rp628
(lp629
I0
ag1
(g15
g3
Ntp630
Rp631
(lp632
I0
aI0
abag419
aba(lp633
a(lp634
ababag1
(g2
g3
Ntp635
Rp636
(lp637
g1
(g7
g3
Ntp638
Rp639
(lp640
g1
(g11
g3
Ntp641
Rp642
(lp643
I0
ag1
(g15
g3
Ntp644
Rp645
(lp646
I0
aI0
abaS'world'
p647
aba(lp648
S'left_s0'
p649
aS'left_s1'
p650
aS'left_e0'
p651
aS'left_e1'
p652
aS'left_w0'
p653
aS'left_w1'
p654
aS'left_w2'
p655
aa(lp656
g1
(g29
g3
Ntp657
Rp658
(lp659
(F-0.9633399347920398
F-0.56105347316909
F-0.4440874380928273
F0.6991117440787773
F0.4114903463502622
F1.4446264069910884
F-0.18331070415230694
tp660
a(F0.0
F0.0
F0.0
F0.0
F0.0
F0.0
F0.0
tp661
a(F0.6915782544066805
F0.0
F0.0
F0.0
F0.0
F0.0
F0.0
tp662
a(tag1
(g36
g3
Ntp663
Rp664
(lp665
I0
aI0
ababag1
(g29
g3
Ntp666
Rp667
(lp668
(F-0.9408763851042662
F-0.5920989666575173
F-0.4485679447291299
F0.7627707612341507
F0.4086842067986593
F1.4162213092729417
F-0.1871127374461745
tp669
a(F0.15424061283729215
F-0.20591669383576544
F-0.03013460159126089
F0.4197395657695707
F-0.019529795376587188
F-0.1873269336147628
F-0.018160156802909774
tp670
a(F0.7516686596012072
F-0.9564006452804495
F-0.14276498181297867
F1.9327466124709383
F-0.09687852148454773
F-0.8628167571833999
F-0.03687628646963037
tp671
a(tag1
(g36
g3
Ntp672
Rp673
(lp674
I0
aI254878690
ababag1
(g29
g3
Ntp675
Rp676
(lp677
(F-0.9195235005544172
F-0.6202043850973524
F-0.4527048728148318
F0.8199177358437089
F0.4059660119160906
F1.3907149124534621
F-0.18918683845924433
tp678
a(F0.2578111170198917
F-0.3309377846450191
F-0.04927156656470376
F0.6698585541986553
F-0.033173697111924576
F-0.29905567268419975
F-0.01575435302902918
tp679
a(F0.8999951386935487
F-0.9827586942928253
F-0.15810237498955337
F1.9252237487496844
F-0.12308844693773015
F-0.8611548532683361
F0.13570323585869382
tp680
a(tag1
(g36
g3
Ntp681
Rp682
(lp683
I0
aI351784433
ababag1
(g29
g3
Ntp684
Rp685
(lp686
(F-0.8989715779037585
F-0.646085907863923
F-0.45659237939392017
F0.8721196728709147
F0.4033004063146836
F1.3674047961995257
F-0.18989020202557091
tp687
a(F0.3026644563262034
F-0.3733122300273074
F-0.05664627810414171
F0.75
F-0.0396413873593227
F-0.3350035415394337
F-0.0016310466846038386
tp688
a(F0.22066498549363142
F-0.04375180681257493
F-0.023692682758450007
F0.0
F-0.04013262135766264
F-0.003001430420609245
F0.2530728924021319
tp689
a(tag1
(g36
g3
Ntp690
Rp691
(lp692
I0
aI421387015
ababag1
(g29
g3
Ntp693
Rp694
(lp695
(F-0.8790223969630236
F-0.6701994790619444
F-0.46028810769337075
F0.9203754728816194
F0.4006633706592303
F1.34584384435516
F-0.1894498948732377
tp696
a(F0.3173929769590425
F-0.37622298895399775
F-0.0582388549332272
F0.75
F-0.04237451683605831
F-0.3352214727018741
F0.015316716577407845
tp697
a(F0.2361006376503134
F-0.0465065936749257
F-0.02570975962730656
F0.0
F-0.044691040761330826
F-0.0037774779914579114
F0.27258154376587196
tp698
a(tag1
(g36
g3
Ntp699
Rp700
(lp701
I0
aI485728082
ababag1
(g29
g3
Ntp702
Rp703
(lp704
(F-0.8595379016122765
F-0.692860245952494
F-0.4638304923436994
F0.9653767560852954
F0.398037469649817
F1.3257229367173171
F-0.1880224479810026
tp705
a(F0.33208213656963437
F-0.3791024766338177
F-0.05983851376213517
F0.75
F-0.04520728059166615
F-0.3354692183092273
F0.03232483857057511
tp706
a(F0.2527163624710719
F-0.04929982220882524
F-0.027522843236630845
F0.0
F-0.049633822243660246
F-0.004480936067675194
F0.29345902431186094
tp707
a(tag1
(g36
g3
Ntp708
Rp709
(lp710
I0
aI545729793
ababag1
(g29
g3
Ntp711
Rp712
(lp713
(F-0.8404172938722831
F-0.7142963098444143
F-0.46724635793883246
F1.0076251539226555
F0.39540957467247595
F1.3068182129680637
F-0.18572077926425964
tp714
a(F0.34683993146942094
F-0.38196368537777897
F-0.06143752511093364
F0.75
F-0.0481550699644586
F-0.3357397987120342
F0.049505726731935006
tp715
a(F0.2706247636887669
F-0.052145432685268125
F-0.02917251631272114
F0.0
F-0.05495349189630663
F-0.005123917415679975
F0.31585677252015126
tp716
a(tag1
(g36
g3
Ntp717
Rp718
(lp719
I0
aI602060990
ababag1
(g29
g3
Ntp720
Rp721
(lp722
(F-0.8215842690457824
F-0.7346786851390683
F-0.47055503991011616
F1.0474977060566983
F0.3927695147700538
F1.2889616860819082
F-0.18262922746977836
tp723
a(F0.3617537834105635
F-0.38481630391298227
F-0.06303027984547335
F0.75
F-0.05122955497664031
F-0.3360280119888806
F0.06695174710328569
tp724
a(F0.28994825547020286
F-0.05505515006285142
F-0.030679462516490945
F0.0
F-0.060656422954477505
F-0.0057153578848401256
F0.3399350346688727
tp725
a(tag1
(g36
g3
Ntp726
Rp727
(lp728
I0
aI655224393
ababag1
(g29
g3
Ntp729
Rp730
(lp731
(F-0.8029794034452294
F-0.7541391689913284
F-0.4737707874504453
F1.0852858837897947
F0.3901092390321682
F1.2720237165980524
F-0.17881254016146658
tp732
a(F0.37689786826924876
F-0.3876677810864684
F-0.06461212984254838
F0.75
F-0.054440270873034116
F-0.3363298498943255
F0.08474252317854525
tp733
a(F0.31082333127202677
F-0.05803941199789542
F-0.03205211078292451
F0.0
F-0.06675747708434557
F-0.006262064978700607
F0.36586847961905244
tp734
a(tag1
(g36
g3
Ntp735
Rp736
(lp737
I0
aI705608630
ababag1
(g29
g3
Ntp738
Rp739
(lp740
(F-0.7845553642766455
F-0.7727815909572792
F-0.4769042467158533
F1.121220168713408
F0.38742227542408375
F1.2559019800646176
F-0.17432154837650593
tp741
a(F0.3923377726553864
F-0.39052398247785824
F-0.06617878361291082
F0.75
F-0.0577954808888437
F-0.3366421395892002
F0.1029495760816198
tp742
a(F0.3334036683384987
F-0.06110790395763028
F-0.03329044682440587
F0.0
F-0.07327748339858983
F-0.00676940048714757
F0.39385040553418654
tp743
a(tag1
(g36
g3
Ntp744
Rp745
(lp746
I0
aI753521010
ababag1
(g29
g3
Ntp747
Rp748
(lp749
(F-0.7662737620386207
F-0.7906892115163086
F-0.4799634190903038
F1.1554862263430563
F0.3847033696393421
F1.24051421091551
F-0.16919691231758968
tp750
a(F0.40813361538544235
F-0.3933896137030478
F-0.0677259629798784
F0.75
F-0.06130267695160299
F-0.3369623145481464
F0.12163944382262964
tp751
a(F0.3578631661043378
F-0.06426991341588816
F-0.03438798435079937
F0.0
F-0.08024206191225818
F-0.00724173768204928
F0.4240967290596448
tp752
a(tag1
(g36
g3
Ntp753
Rp754
(lp755
I0
aI799209087
ababag1
(g29
g3
Ntp756
Rp757
(lp758
(F-0.7481030075274051
F-0.8079297666582371
F-0.4829543039062576
F1.188235941041592
F0.3819482378171435
F1.2257932541235308
F-0.16347168722981603
tp759
a(F0.4118241916428046
F-0.3847339218069075
F-0.06725583348644351
F0.7282669632203275
F-0.06300103777625252
F-0.32750555713089424
F0.13649146162752088
tp760
a(F-0.19550309162937948
F0.45843158515970056
F0.0562538668106861
F-0.987288106517578
F0.004276307174875216
F0.43695034566027574
F0.24432509233177185
tp761
a(tag1
(g36
g3
Ntp762
Rp763
(lp764
I0
aI842875373
ababag1
(g29
g3
Ntp765
Rp766
(lp767
(F-0.7300151394875624
F-0.8245583358763924
F-0.4858845024086104
F1.219595563456814
F0.37915610472423433
F1.2116837869872428
F-0.15717477519404957
tp768
a(F0.39165244714502057
F-0.3547837836325597
F-0.06289128665564989
F0.6667734560419806
F-0.061034181610361254
F-0.30013941752256124
F0.1423368425308746
tp769
a(F-0.6873164541720413
F0.8601653813344087
F0.13541045158745635
F-1.7221922516787687
F0.08111543916870673
F0.7687232954049324
F0.020231464408386315
tp770
a(tag1
(g36
g3
Ntp771
Rp772
(lp773
I0
aI887260534
ababag1
(g29
g3
Ntp774
Rp775
(lp776
(F-0.7119912683268361
F-0.8406224608189115
F-0.48875103402043885
F1.2496692033456736
F0.37631852327036336
F1.1981393315102258
F-0.15032542114386935
tp777
a(F0.3543561744080779
F-0.31131915657091525
F-0.0558795757268521
F0.5808714957396905
F-0.05626430580921041
F-0.2617302153943724
F0.13973099058019073
tp778
a(F-0.8405752933307268
F0.9260041519051051
F0.15241811962586935
F-1.8100240738258495
F0.11364863598723934
F0.8105064586386528
F-0.12054427294454975
tp779
a(tag1
(g36
g3
Ntp780
Rp781
(lp782
I0
aI935223879
ababag1
(g29
g3
Ntp783
Rp784
(lp785
(F-0.6940113408917967
F-0.8561605436630536
F-0.4915589985678673
F1.2785475339921464
F0.37343640658293825
F1.1851203137026056
F-0.1429451425446907
tp786
a(F0.3030203173807566
F-0.25829754868105137
F-0.04692223728467377
F0.4785175587323613
F-0.04896048384111104
F-0.21582083047872172
F0.12838423655166414
tp787
a(F-0.9991208817923904
F0.9826841410681214
F0.1694345984222483
F-1.8778756947163138
F0.14721251671178215
F0.8434470046276707
F-0.27640137024979633
tp788
a(tag1
(g36
g3
Ntp789
Rp790
(lp791
I0
aI989229322
ababag1
(g29
g3
Ntp792
Rp793
(lp794
(F-0.6760594318451807
F-0.8712051299055471
F-0.49430985716197173
F1.3063059887632738
F0.3705078484576998
F1.1725937947313256
F-0.13505018794205959
tp795
a(F0.22388672975776708
F-0.18541957520495594
F-0.03404321449156932
F0.3411637766329928
F-0.03676703999996268
F-0.1540143781035112
F0.10092863692070515
tp796
a(F-1.1690599423468486
F1.0321808417510248
F0.1854114488283021
F-1.9270180400430046
F0.1849274037148583
F0.8682281692853054
F-0.45554640773661126
tp797
a(tag1
(g36
g3
Ntp798
Rp799
(lp800
I1
aI54960126
ababag1
(g29
g3
Ntp801
Rp802
(lp803
(F-0.6581221083794504
F-0.8857838633714122
F-0.4970042477217236
F1.3330097728091597
F0.3675316333043896
F1.1605313274487756
F-0.12665494984296147
tp804
a(F0.28160565131033494
F0.03894631528188022
F-0.34697462841229787
F0.13142799294169794
F0.2473924626540485
F0.008557148443866694
F-0.09610126108499725
tp805
a(F0.6585615598380118
F1.1139973873104159
F-1.9750952526411958
F-0.7918794561071232
F1.7018921677052121
F0.775982191516008
F-1.0951815515464436
tp806
a(tag1
(g36
g3
Ntp807
Rp808
(lp809
I1
aI157658124
ababag1
(g29
g3
Ntp810
Rp811
(lp812
(F-0.4456364057978582
F-0.7655550036905016
F-0.8621550829459462
F1.3345593468613803
F0.6539619401796016
F1.2341233341481637
F-0.27646903655055644
tp813
a(F0.3775277129508915
F0.013776467919642932
F-0.37563331142330864
F0.20384532385877951
F0.23921825684745404
F-0.017302825152273854
F-0.08992522056310848
tp814
a(F-0.07268333190790084
F-1.358841867105513
F1.9259652277220778
F1.3254650999690134
F-1.876293170365439
F-1.0014445561222494
F1.2134492562493253
tp815
a(tag1
(g36
g3
Ntp816
Rp817
(lp818
I1
aI704525904
ababag1
(g29
g3
Ntp819
Rp820
(lp821
(F-0.4237387208053768
F-0.7770442317463443
F-0.867147174428706
F1.3587484658017124
F0.6512536741417203
F1.2240155447272985
F-0.2708468792808315
tp822
a(F0.417152398559525
F-0.21550880338778589
F-0.09497588764660889
F0.45180471715422993
F-0.051621789262932635
F-0.18936431800292242
F0.11308646945676873
tp823
a(F1.903025205285055
F-0.8721595212960833
F-0.4291877345189037
F1.7640099045613338
F-0.2364574606935038
F-0.7585684623296908
F0.7134377644226089
tp824
a(tag1
(g36
g3
Ntp825
Rp826
(lp827
I1
aI764273204
ababag1
(g29
g3
Ntp828
Rp829
(lp830
(F-0.4018881315844889
F-0.7881946972850858
F-0.8721169643940436
F1.3820448260018743
F0.6485485110001487
F1.21422747732552
F-0.2646777981547097
tp831
a(F0.5071625540273726
F-0.25487128165036205
F-0.11515238408386977
F0.5303794705303528
F-0.06282251265072589
F-0.22350342025983458
F0.14999336505924887
tp832
a(F1.8177627660775006
F-0.7458352302112549
F-0.4042590109211594
F1.4605333682672332
F-0.2266322190299428
F-0.6442283670338811
F0.8275115528210832
tp833
a(tag1
(g36
g3
Ntp834
Rp835
(lp836
I1
aI810982480
ababag1
(g29
g3
Ntp837
Rp838
(lp839
(F-0.3800769735014774
F-0.7990108535047474
F-0.8770619181273148
F1.4044738233656517
F0.6458454845138155
F1.2047509833187404
F-0.25797660638366104
tp840
a(F0.5805918376643261
F-0.2835245654163563
F-0.1313552869176801
F0.5856915140569529
F-0.07196576923938852
F-0.24817514221453035
F0.18582317163769702
tp841
a(F1.8085598219283832
F-0.6637506703231114
F-0.3954536593549295
F1.2574096689229908
F-0.224866540346209
F-0.5691823229007119
F0.950849057120261
tp842
a(tag1
(g36
g3
Ntp843
Rp844
(lp845
I1
aI850891259
ababag1
(g29
g3
Ntp846
Rp847
(lp848
(F-0.3582957630336713
F-0.8095009568774394
F-0.8819806222411776
F1.4260678616679632
F0.6431451892059933
F1.1955766554683174
F-0.25075704320036374
tp849
a(F0.6434505704456629
F-0.30512554632585537
F-0.14494798390048175
F0.625803139074477
F-0.07975517733540062
F-0.2666234217817015
F0.2212012573308495
tp850
a(F1.6985534406943064
F-0.5367461609354423
F-0.36244576862967154
F0.9690696314105868
F-0.2096488259055788
F-0.45584326984528317
F1.0304770247040274
tp851
a(tag1
(g36
g3
Ntp852
Rp853
(lp854
I1
aI886327547
ababag1
(g29
g3
Ntp855
Rp856
(lp857
(F-0.3365367414732433
F-0.8196716952812891
F-0.8868711320628672
F1.4468554307169683
F0.64044866194133
F1.1866965349883154
F-0.24303185557606516
tp858
a(F0.696489023250233
F-0.3204763193692466
F-0.15609317392040284
F0.6526968126913744
F-0.08625993933628588
F-0.27958881803652347
F0.25555318717220665
tp859
a(F1.5508753193626708
F-0.39992422577079706
F-0.319904981709369
F0.6695034557623839
F-0.188756443316128
F-0.33506582010543
F1.0799791957375418
tp860
a(tag1
(g36
g3
Ntp861
Rp862
(lp863
I1
aI918695349
ababag1
(g29
g3
Ntp864
Rp865
(lp866
(F-0.3147937357494618
F-0.8295283851374418
F-0.8917310017739047
F1.4668616304603561
F0.637757363100856
F1.178103921443875
F-0.2348130129862023
tp867
a(F0.735367629181056
F-0.32810222669059963
F-0.16382957438125834
F0.6637059561293326
F-0.09092382743588923
F-0.2858224136956278
F0.28636450660627505
tp868
a(F0.9896198853515299
F-0.09289493637984225
F-0.18497664385922086
F0.03666958739775556
F-0.11584644229549192
F-0.06730820209633366
F0.9419160367168518
tp869
a(tag1
(g36
g3
Ntp870
Rp871
(lp872
I1
aI948863161
ababag1
(g29
g3
Ntp873
Rp874
(lp875
(F-0.29306204579514356
F-0.8390751384761833
F-0.8965573090918522
F1.486108610175372
F0.6350731599276586
F1.169793212578696
F-0.226111889592567
tp876
a(F0.75
F-0.32423886220079523
F-0.16595759575211466
F0.6516023720314887
F-0.09249228988540141
F-0.2820842074953126
F0.3084833128879967
tp877
a(F0.0
F0.3615359947282139
F0.04190611802708442
F-0.8730178544141723
F0.009970614677425025
F0.32677759247359545
F0.5655302160118728
tp878
a(tag1
(g36
g3
Ntp879
Rp880
(lp881
I1
aI977838747
ababag1
(g29
g3
Ntp882
Rp883
(lp884
(F-0.271338352657526
F-0.8483150062690668
F-0.901346676113393
F1.50461593956194
F0.6323983110409016
F1.1617597679063454
F-0.21693941961170216
tp885
a(F0.75
F-0.31378342321216934
F-0.16466962944589195
F0.6265718853496438
F-0.09215356797517922
F-0.2726670158498037
F0.32467395999309645
tp886
a(F0.0
F0.36038504409883854
F0.047025472954476594
F-0.8552701446226928
F0.013417818359948801
F0.32345478297769037
F0.552390292645432
tp887
a(tag1
(g36
g3
Ntp888
Rp889
(lp890
I2
aI6803672
ababag1
(g29
g3
Ntp891
Rp892
(lp893
(F-0.24962064313486712
F-0.8572501028250331
F-0.9060952874294856
F1.5224009244052759
F0.6297354513735451
F1.1539997917071996
F-0.20730623043628682
tp894
a(F0.75
F-0.3033603993828883
F-0.16323130223679938
F0.6020496464667509
F-0.09171150257359932
F-0.2633450158928914
F0.34048970495022346
tp895
a(F0.0
F0.3595064639815394
F0.052316793939593216
F-0.838416059554964
F0.017114985823475995
F0.3203915381654608
F0.5399611946380204
tp896
a(tag1
(g36
g3
Ntp897
Rp898
(lp899
I2
aI35760618
ababag1
(g29
g3
Ntp900
Rp901
(lp902
(F-0.22790814697642364
F-0.8658817151671326
F-0.910798906751016
F1.5394788772334553
F0.6270875767584949
F1.1465102313915858
F-0.197222756723611
tp903
a(F0.75
F-0.29296134532949897
F-0.16163756008716934
F0.5780083615680212
F-0.09115901629167963
F-0.2541101837721604
F0.3559521037148694
tp904
a(F0.0
F0.35891184957082156
F0.05778752563100839
F-0.8224735121482846
F0.021054007012773313
F0.3175962576020596
F0.5282567734884626
tp905
a(tag1
(g36
g3
Ntp906
Rp907
(lp908
I2
aI64710613
ababag1
(g29
g3
Ntp909
Rp910
(lp911
(F-0.20620128402371368
F-0.8742104003192372
F-0.9154528927344135
F1.5558633506405917
F0.6244580276653819
F1.1392886887516704
F-0.18669933823794077
tp912
a(F0.75
F-0.282578023221294
F-0.1598831971138692
F0.5544215065837179
F-0.09048929868439021
F-0.24495473417268288
F0.3710822893936392
tp913
a(F0.0
F0.358615267705654
F0.06344648345392505
F-0.8074659130611423
F0.02522665065477832
F0.3150798580144194
F0.5172951456916526
tp914
a(tag1
(g36
g3
Ntp915
Rp916
(lp917
I2
aI93653096
ababag1
(g29
g3
Ntp918
Rp919
(lp920
(F-0.18450161847460986
F-0.8822360729864053
F-0.9200522149639235
F1.5715663399208046
F0.6218504714924834
F1.1323333414418004
F-0.17574630325567916
tp921
a(F0.75
F-0.2722023085561224
F-0.15796284692811596
F0.5312630243969871
F-0.08969583227631142
F-0.2358710092816675
F0.38590119506405085
tp922
a(F0.0
F0.3586331372466249
F0.0693038949933494
F-0.7934219504115257
F0.029624653750442688
F0.31285593544646423
F0.5070984452736553
tp923
a(tag1
(g36
g3
Ntp924
Rp925
(lp926
I2
aI122585984
ababag1
(g29
g3
Ntp927
Rp928
(lp929
(F-0.16281181846531223
F-0.8899580854715571
F-0.9245914705944773
F1.586598459854446
F0.619268883062271
F1.1256428731865038
F-0.1643740392300657
tp930
a(F0.75
F-0.2618261049555477
F-0.15587097710956074
F0.5085070521465316
F-0.08877241958154226
F-0.22685137580774678
F0.4004297525842456
tp931
a(F0.0
F0.3589842466289451
F0.07537127084750726
F-0.7803754734809967
F0.034239731800272635
F0.3109405698985358
F0.4976927155829872
tp932
a(tag1
(g36
g3
Ntp933
Rp934
(lp935
I2
aI151505717
ababag1
(g29
g3
Ntp936
Rp937
(lp938
(F-0.1411356190157219
F-0.89737530138954
F-0.9290649023332945
F1.6009690998815118
F0.6167175229176969
F1.119216411079619
F-0.15259305180608748
tp939
a(F0.75
F-0.25144126530851385
F-0.15360188823807913
F0.4861276730435975
F-0.08771321148128158
F-0.21788813158486672
F0.4146890716309496
tp940
a(F0.0
F0.35968977962347837
F0.08166136379512522
F-0.7683655011259102
F0.039063619179295066
F0.30935233973896165
F0.48910785117764854
tp941
a(tag1
(g36
g3
Ntp942
Rp943
(lp944
I2
aI180407316
ababag1
(g29
g3
Ntp945
Rp946
(lp947
(F-0.11947778681070814
F-0.9044861643769698
F-0.9334664182646161
F1.614686560955874
F0.6142009131332264
F1.113053468832909
F-0.1404140131071343
tp948
a(F0.75
F-0.24103951903223303
F-0.15114971473799496
F0.46409868776347285
F-0.08651273527126335
F-0.2089734150672337
F0.4287006012086252
tp949
a(F0.0
F0.360773327909578
F0.08818824576258018
F-0.7574363485339025
F0.0440881709483603
F0.30811256748616556
F0.4813775823408512
tp950
a(tag1
(g36
g3
Ntp951
Rp952
(lp953
I2
aI209284426
ababag1
(g29
g3
Ntp954
Rp955
(lp956
(F-0.0978440857327635
F-0.9112887627106104
F-0.9377896138207573
F1.62775817660922
F0.6117238105030611
F1.1071538952849784
F-0.12784780018184608
tp957
a(F0.75
F-0.2306124027511232
F-0.1485084302432822
F0.4423934018794939
F-0.0851659234175004
F-0.20009912209430442
F0.4424862768455882
tp958
a(F0.0
F0.3622610967596576
F0.09496709511964138
F-0.7476378271182228
F0.04930530475678825
F0.30724502535590587
F0.47453960888827046
tp959
a(tag1
(g36
g3
Ntp960
Rp961
(lp962
I2
aI238129361
ababag1
(g29
g3
Ntp963
Rp964
(lp965
(F-0.07624124153817016
F-0.9177808906368438
F-0.9420277965324294
F1.6401904207350735
F0.6092911768261232
F1.101517826982375
F-0.11490552389856963
tp966
a(F0.75
F-0.2201511938053263
F-0.1456718562534789
F0.4209844259292609
F-0.08366814200757501
F-0.19125682666231303
F0.4560686551999375
tp967
a(F0.0
F0.36418196180888374
F0.10201437290560426
F-0.7390255890455136
F0.05470714450485434
F0.30677641334821204
F0.46863569696782614
tp968
a(tag1
(g36
g3
Ntp969
Rp970
(lp971
I2
aI266933153
ababag1
(g29
g3
Ntp972
Rp973
(lp974
(F-0.05467690510476598
F-0.9239601068949131
F-0.9461740136294292
F1.6519890035995082
F0.6069081463543162
F1.0961456446652929
F-0.10159854904691454
tp975
a(F0.75
F-0.20964684690930666
F-0.1426336715786451
F0.3998434852778907
F-0.08201521706392594
F-0.1824377006133703
F0.46947103707593585
tp976
a(F0.0
F0.3665676719767557
F0.10934779759690864
F-0.7316615496252347
F0.06028606043539744
F0.30673644069927436
F0.4637119039864942
tp977
a(tag1
(g36
g3
Ntp978
Rp979
(lp980
I2
aI295685602
ababag1
(g29
g3
Ntp981
Rp982
(lp983
(F-0.03315961331919903
F-0.9298237908555922
F-0.9502210827782602
F1.6631589576408254
F0.604579990401716
F1.0910379330917064
F-0.08793850603017433
tp984
a(F0.7426110185275954
F-0.19718064646314265
F-0.13803069649495775
F0.37531033125702173
F-0.07942261819294805
F-0.17196516902491032
F0.4778969609920898
tp985
a(F-0.5106470530790207
F0.49773110248113994
F0.2095863694651244
F-0.9693332105329736
F0.11934190351787047
F0.41932941628612264
F0.12210012163647778
tp986
a(tag1
(g36
g3
Ntp987
Rp988
(lp989
I2
aI324375324
ababag1
(g29
g3
Ntp990
Rp991
(lp992
(F-0.01169874665716142
F-0.9353691965552328
F-0.954161626255432
F1.6737047144139958
F0.602312079133111
F1.0861954436273613
F-0.07393729436948136
tp993
a(F0.7104884526175628
F-0.17871720792488915
F-0.12882453094104662
F0.33971354077455873
F-0.0741422860213409
F-0.1562926740271306
F0.46949658873083067
tp994
a(F-1.6383176929678145
F0.7459358368661554
F0.40892287177559095
F-1.428812259786074
F0.2353770878438593
F0.6362127008219288
F-0.6734570942936275
tp995
a(tag1
(g36
g3
Ntp996
Rp997
(lp998
I2
aI353564964
ababag1
(g29
g3
Ntp999
Rp1000
(lp1001
(F0.009695516816575442
F-0.940593504739264
F-0.9579881084741618
F1.6836301735168089
F0.6001098408173404
F1.0816190595919406
F-0.05960707861749964
tp1002
a(F0.6595189918398372
F-0.15651863892906553
F-0.11635663616098695
F0.2973424468259954
F-0.0669503700080567
F-0.13735474124316382
F0.44723022428979453
tp1003
a(F-1.6180305221627762
F0.674525060830707
F0.3881916624371766
F-1.2828114639166808
F0.2243916078902398
F0.5755930566098724
F-0.746188602966489
tp1004
a(tag1
(g36
g3
Ntp1005
Rp1006
(lp1007
I2
aI384763085
ababag1
(g29
g3
Ntp1008
Rp1009
(lp1010
(F0.031012251413679557
F-0.9454938729785525
F-0.9616928768380462
F1.6929387643531906
F0.5979787188442038
F1.0773097641555691
F-0.044960277139599276
tp1011
a(F0.6032930292944917
F-0.13456192498274125
F-0.10331540311409732
F0.2557006941671469
F-0.05939929084985951
F-0.11859470911974193
F0.41944298595941776
tp1012
a(F-1.6968567290986838
F0.6234894429785544
F0.3817391857237151
F-1.17921597013384
F0.2213793039708624
F0.5333832008082912
F-0.8876371478722808
tp1013
a(tag1
(g36
g3
Ntp1014
Rp1015
(lp1016
I2
aI418423756
ababag1
(g29
g3
Ntp1017
Rp1018
(lp1019
(F0.052244498806406886
F-0.9500692610779442
F-0.9652692896570836
F1.7016367689820096
F0.5959237732419109
F1.0732667418953679
F-0.03000723089551147
tp1020
a(F0.5397027709697217
F-0.11259737798227765
F-0.08946278263842941
F0.21423713443704673
F-0.051373719170773796
F-0.09975177629803303
F0.38445759767798804
tp1021
a(F-1.7062714765291545
F0.555807633418209
F0.3608439990281017
F-1.047229296694346
F0.20886152352672965
F0.4781582096683236
F-0.9799520286965093
tp1022
a(tag1
(g36
g3
Ntp1023
Rp1024
(lp1025
I2
aI455458709
ababag1
(g29
g3
Ntp1026
Rp1027
(lp1028
(F0.07336602782144246
F-0.9543115876959481
F-0.9687063505301333
F1.7097170343355994
F0.5939514063087334
F1.0694966952804612
F-0.01476774723790931
tp1029
a(F0.4765730710733266
F-0.09244106841681124
F-0.07621125552577361
F0.17632163421583802
F-0.0436895642683517
F-0.08241700634234234
F0.3476773827403741
tp1030
a(F-1.3311221907744824
F0.4152219363529583
F0.27703512357358706
F-0.7795412689441036
F0.16098227218760922
F0.3569610960011911
F-0.7880857175258769
tp1031
a(tag1
(g36
g3
Ntp1032
Rp1033
(lp1034
I2
aI497192399
ababag1
(g29
g3
Ntp1035
Rp1036
(lp1037
(F0.09437799024371668
F-0.9582235593824814
F-0.9719995738202093
F1.7171916922024915
F0.5920657619452152
F1.0659951270305412
F0.0007520726630142096
tp1038
a(F0.3972342500062633
F-0.07137070103714599
F-0.06115614820208942
F0.13663944436845926
F-0.03497733810866655
F-0.06411656815293668
F0.29639090729763384
tp1039
a(F-1.8600469461006022
F0.44285919028442616
F0.33270622149808193
F-0.8360769079108215
F0.19198249509470242
F0.3876853106423251
F-1.2623416394849059
tp1040
a(tag1
(g36
g3
Ntp1041
Rp1042
(lp1043
I2
aI544194448
ababag1
(g29
g3
Ntp1044
Rp1045
(lp1046
(F0.11526240183255308
F-0.9618009205234612
F-0.9751402320464457
F1.7240595219440336
F0.5902722401236047
F1.062765012420738
F0.016536720833494743
tp1047
a(F0.24395309330669143
F-0.040728723689168606
F-0.03621625855540454
F0.0783324710501081
F-0.02066313661204644
F-0.03688248236029809
F0.1855955900728602
tp1048
a(F-1.9920512729054212
F0.36160973120130396
F0.308621103584933
F-0.6914986048811993
F0.17660333231138162
F0.32444513782571843
F-1.4822520523012077
tp1049
a(tag1
(g36
g3
Ntp1050
Rp1051
(lp1052
I2
aI604306455
ababag1
(g29
g3
Ntp1053
Rp1054
(lp1055
(F0.13600550493441124
F-0.9650413903206835
F-0.978120808415025
F1.730322324229709
F0.5885756644872009
F1.059807428391945
F0.03257289893989
tp1056
a(F0.0
F0.0
F0.0
F0.0
F0.0
F0.0
F0.0
tp1057
a(F-1.9027988104338123
F0.2972536001543984
F0.2734131504187414
F-0.5744971078169051
F0.15562966094841169
F0.2713040254445441
F-1.4710248739023162
tp1058
a(tag1
(g36
g3
Ntp1059
Rp1060
(lp1061
I2
aI751963926
ababaabag1
(g409
g3
Ntp1062
Rp1063
(lp1064
g1
(g11
g3
Ntp1065
Rp1066
(lp1067
I0
ag1
(g15
g3
Ntp1068
Rp1069
(lp1070
I0
aI0
abag419
aba(lp1071
a(lp1072
ababa.